

Microchip MPLAB XC8 Assembler V2.45 build 20230818022343 
                                                                                               Thu Nov 23 15:54:47 2023

Microchip MPLAB XC8 C Compiler v2.45 (Free license) build 20230818022343 Og1 
     1                           	processor	18F46K42
     2                           	fnconf	rparam,??,?,0
     3                           	pagewidth 120
     4                           	opt	flic
     5                           	psect	idataBANK0,global,class=CODE,delta=1,noexec
     6                           	psect	smallconst,global,reloc=2,class=SMALLCONST,delta=1,noexec
     7                           	psect	nvBANK0,global,class=BANK0,space=1,delta=1,lowdata,noexec
     8                           	psect	cinit,global,reloc=2,class=CODE,delta=1
     9                           	psect	bssCOMRAM,global,class=COMRAM,space=1,delta=1,lowdata,noexec
    10                           	psect	bssBANK0,global,class=BANK0,space=1,delta=1,lowdata,noexec
    11                           	psect	dataBANK0,global,class=BANK0,space=1,delta=1,lowdata,noexec
    12                           	psect	bssBANK1,global,class=BANK1,space=1,delta=1,lowdata,noexec
    13                           	psect	bssBIGRAM,global,class=BIGRAM,space=1,delta=1,noexec
    14                           	psect	cstackBANK1,global,class=BANK1,space=1,delta=1,lowdata,noexec
    15                           	psect	cstackBANK0,global,class=BANK0,space=1,delta=1,lowdata,noexec
    16                           	psect	cstackCOMRAM,global,class=COMRAM,space=1,delta=1,lowdata,noexec
    17                           	psect	text0,global,reloc=2,class=CODE,delta=1
    18                           	psect	text1,global,reloc=2,class=CODE,delta=1
    19                           	psect	text2,global,reloc=2,class=CODE,delta=1
    20                           	psect	text3,global,reloc=2,class=CODE,delta=1
    21                           	psect	text4,global,reloc=2,class=CODE,delta=1
    22                           	psect	text5,global,reloc=2,class=CODE,delta=1
    23                           	psect	text6,global,reloc=2,class=CODE,delta=1
    24                           	psect	text7,global,reloc=2,class=CODE,delta=1
    25                           	psect	text8,global,reloc=2,class=CODE,delta=1
    26                           	psect	text9,global,reloc=2,class=CODE,delta=1
    27                           	psect	text10,global,reloc=2,class=CODE,delta=1
    28                           	psect	text11,global,reloc=2,class=CODE,delta=1
    29                           	psect	text12,global,reloc=2,class=CODE,delta=1
    30                           	psect	text13,global,reloc=2,class=CODE,delta=1
    31                           	psect	text14,global,reloc=2,class=CODE,delta=1
    32                           	psect	text15,global,reloc=2,class=CODE,delta=1
    33                           	psect	text16,global,reloc=2,class=CODE,delta=1
    34                           	psect	text17,global,reloc=2,class=CODE,delta=1
    35                           	psect	text18,global,reloc=2,class=CODE,delta=1
    36                           	psect	text19,global,reloc=2,class=CODE,delta=1
    37                           	psect	text20,global,reloc=2,class=CODE,delta=1,group=3
    38                           	psect	text21,global,reloc=2,class=CODE,delta=1,group=1
    39                           	psect	text22,global,reloc=2,class=CODE,delta=1,group=1
    40                           	psect	text23,global,reloc=2,class=CODE,delta=1,group=3
    41                           	psect	text24,global,reloc=2,class=CODE,delta=1
    42                           	psect	text25,global,reloc=2,class=CODE,delta=1,group=3
    43                           	psect	text26,global,reloc=2,class=CODE,delta=1,group=2
    44                           	psect	text27,global,reloc=2,class=CODE,delta=1,group=2
    45                           	psect	text28,global,reloc=2,class=CODE,delta=1
    46                           	psect	text29,global,reloc=2,class=CODE,delta=1,group=2
    47                           	psect	text30,global,reloc=2,class=CODE,delta=1,group=2
    48                           	psect	text31,global,reloc=2,class=CODE,delta=1,group=2
    49                           	psect	text32,global,reloc=2,class=CODE,delta=1,group=2
    50                           	psect	text33,global,reloc=2,class=CODE,delta=1,group=2
    51                           	psect	text34,global,reloc=2,class=CODE,delta=1,group=2
    52                           	psect	text35,global,reloc=2,class=CODE,delta=1,group=2
    53                           	psect	text36,global,reloc=2,class=CODE,delta=1
    54                           	psect	text37,global,reloc=2,class=CODE,delta=1
    55                           	psect	text38,global,reloc=2,class=CODE,delta=1
    56                           	psect	text39,global,reloc=2,class=CODE,delta=1
    57                           	psect	text40,global,reloc=2,class=CODE,delta=1
    58                           	psect	ivt0x8,global,reloc=2,class=CODE,delta=1,noexec,keep,optim=
    59                           	psect	intsave_regs,global,class=BIGRAM,space=1,delta=1,noexec
    60                           	psect	text41,global,reloc=2,class=CODE,delta=1
    61                           	psect	rparam,global,class=COMRAM,space=1,delta=1,noexec
    62                           	psect	config,global,abs,ovrld,class=CONFIG,space=4,delta=1,noexec
    63   000000                     
    64                           ; Generated 21/07/2023 GMT
    65                           ; 
    66                           ; Copyright © 2023, Microchip Technology Inc. and its subsidiaries ("Microchip")
    67                           ; All rights reserved.
    68                           ; 
    69                           ; This software is developed by Microchip Technology Inc. and its subsidiaries ("Microch
      +                          ip").
    70                           ; 
    71                           ; Redistribution and use in source and binary forms, with or without modification, are
    72                           ; permitted provided that the following conditions are met:
    73                           ; 
    74                           ;     1. Redistributions of source code must retain the above copyright notice, this lis
      +                          t of
    75                           ;        conditions and the following disclaimer.
    76                           ; 
    77                           ;     2. Redistributions in binary form must reproduce the above copyright notice, this 
      +                          list
    78                           ;        of conditions and the following disclaimer in the documentation and/or other
    79                           ;        materials provided with the distribution. Publication is not required when
    80                           ;        this file is used in an embedded application.
    81                           ; 
    82                           ;     3. Microchip's name may not be used to endorse or promote products derived from th
      +                          is
    83                           ;        software without specific prior written permission.
    84                           ; 
    85                           ; THIS SOFTWARE IS PROVIDED BY MICROCHIP "AS IS" AND ANY EXPRESS OR IMPLIED WARRANTIES,
    86                           ; INCLUDING, BUT NOT LIMITED TO, THE IMPLIED WARRANTIES OF MERCHANTABILITY AND FITNESS F
      +                          OR
    87                           ; PURPOSE ARE DISCLAIMED.  IN NO EVENT SHALL MICROCHIP BE LIABLE FOR ANY DIRECT, INDIREC
      +                          T,
    88                           ; INCIDENTAL, SPECIAL, EXEMPLARY, OR CONSEQUENTIAL DAMAGES (INCLUDING BUT NOT LIMITED TO
    89                           ; PROCUREMENT OF SUBSTITUTE GOODS OR SERVICES; LOSS OF USE, DATA OR PROFITS; OR BUSINESS
    90                           ; INTERRUPTION) HOWSOEVER CAUSED AND ON ANY THEORY OF LIABILITY, WHETHER IN CONTRACT, ST
      +                          RICT
    91                           ; LIABILITY, OR TORT (INCLUDING NEGLIGENCE OR OTHERWISE) ARISING IN ANY WAY OUT OF THE U
      +                          SE OF
    92                           ; THIS SOFTWARE, EVEN IF ADVISED OF THE POSSIBILITY OF SUCH DAMAGE.
    93                           ; 
    94                           ; 
    95                           ; Code-generator required, PIC18F46K42 Definitions
    96                           ; 
    97                           ; SFR Addresses
    98   000000                     
    99 ;; Function _rd1RegCompleteHandler is unused but had its address taken
   100   000000                     
   101 ;; Function _rd2RegCompleteHandler is unused but had its address taken
   102   000000                     
   103 ;; Function _wr1RegCompleteHandler is unused but had its address taken
   104   000000                     
   105 ;; Function _wr2RegCompleteHandler is unused but had its address taken
   106   000000                     
   107 ;; Function _rdBlkRegCompleteHandler is unused but had its address taken
   108   000000                     
   109 ;; Function _UART1_DefaultFramingErrorHandler is unused but had its address taken
   110   000000                     
   111 ;; Function _UART1_DefaultOverrunErrorHandler is unused but had its address taken
   112   000000                     
   113 ;; Function _UART1_DefaultErrorHandler is unused but had its address taken
   114   000000                     
   115 ;; Function _I2C1_DO_IDLE is unused but had its address taken
   116   000000                     
   117 ;; Function _I2C1_DO_SEND_ADR_READ is unused but had its address taken
   118   000000                     
   119 ;; Function _I2C1_DO_SEND_ADR_WRITE is unused but had its address taken
   120   000000                     
   121 ;; Function _I2C1_DO_TX is unused but had its address taken
   122   000000                     
   123 ;; Function _I2C1_DO_RX is unused but had its address taken
   124   000000                     
   125 ;; Function _I2C1_DO_TX_EMPTY is unused but had its address taken
   126   000000                     
   127 ;; Function _I2C1_DO_RX_EMPTY is unused but had its address taken
   128   000000                     
   129 ;; Function _I2C1_DO_SEND_RESTART_READ is unused but had its address taken
   130   000000                     
   131 ;; Function _I2C1_DO_SEND_RESTART_WRITE is unused but had its address taken
   132   000000                     
   133 ;; Function _I2C1_DO_SEND_RESTART is unused but had its address taken
   134   000000                     
   135 ;; Function _I2C1_DO_SEND_STOP is unused but had its address taken
   136   000000                     
   137 ;; Function _I2C1_DO_RX_ACK is unused but had its address taken
   138   000000                     
   139 ;; Function _I2C1_DO_TX_ACK is unused but had its address taken
   140   000000                     
   141 ;; Function _I2C1_DO_RX_NACK_STOP is unused but had its address taken
   142   000000                     
   143 ;; Function _I2C1_DO_RX_NACK_RESTART is unused but had its address taken
   144   000000                     
   145 ;; Function _I2C1_DO_RESET is unused but had its address taken
   146   000000                     
   147 ;; Function _I2C1_DO_ADDRESS_NACK is unused but had its address taken
   148   000000                     
   149 ;; Function _I2C1_DO_BUS_COLLISION is unused but had its address taken
   150   000000                     
   151 ;; Function _I2C1_DO_BUS_ERROR is unused but had its address taken
   152   000000                     
   153 ;; Function _I2C1_CallbackReturnStop is unused but had its address taken
   154   000000                     
   155 ;; Function _I2C1_CallbackReturnReset is unused but had its address taken
   156   000000                     
   157                           	psect	idataBANK0
   158   002D48                     __pidataBANK0:
   159                           	callstack 0
   160                           
   161                           ;initializer for _puntoDeQuiebre
   162   002D48  8106               	dw	33030
   163   002D4A  3F15               	dw	16149
   164                           
   165                           	psect	smallconst
   166   001000                     __psmallconst:
   167                           	callstack 0
   168   001000  00                 	db	0
   169   001001                     _i2c1_fsmStateTable:
   170                           	callstack 0
   171   001001  00                 	db	0
   172   001002  00                 	db	0
   173   001003  00                 	db	0
   174   001004  00                 	db	0
   175   001005  00                 	db	0
   176   001006  00                 	db	0
   177   001007  00                 	db	0
   178   001008  00                 	db	0
   179   001009  00                 	db	0
   180   00100A  00                 	db	0
   181   00100B  00                 	db	0
   182   00100C  00                 	db	0
   183   00100D  00                 	db	0
   184   00100E  00                 	db	0
   185   00100F  00                 	db	0
   186   001010  00                 	db	0
   187   001011  00                 	db	0
   188   001012  00                 	db	0
   189   001013  00                 	db	0
   190   001014  00                 	db	0
   191   001015  00                 	db	0
   192   001016  00                 	db	0
   193   001017  00                 	db	0
   194   001018  00                 	db	0
   195   001019  00                 	db	0
   196   00101A  00                 	db	0
   197   00101B  00                 	db	0
   198   00101C  00                 	db	0
   199   00101D  00                 	db	0
   200   00101E  00                 	db	0
   201   00101F  00                 	db	0
   202   001020  00                 	db	0
   203   001021  00                 	db	0
   204   001022  00                 	db	0
   205   001023  00                 	db	0
   206   001024  00                 	db	0
   207   001025  00                 	db	0
   208   001026  00                 	db	0
   209   001027                     __end_of_i2c1_fsmStateTable:
   210                           	callstack 0
   211   001027                     _B:
   212                           	callstack 0
   213   001027  A8                 	db	168
   214   001028  30                 	db	48
   215   001029  80                 	db	128
   216   00102A  90                 	db	144
   217   00102B  D8                 	db	216
   218   00102C  D0                 	db	208
   219   00102D  70                 	db	112
   220   00102E  08                 	db	8
   221   00102F  08                 	db	8
   222   001030  70                 	db	112
   223   001031  D0                 	db	208
   224   001032  D8                 	db	216
   225   001033  90                 	db	144
   226   001034  80                 	db	128
   227   001035  30                 	db	48
   228   001036  A8                 	db	168
   229   001037                     __end_of_B:
   230                           	callstack 0
   231   000000                     _T6CON	set	16276
   232   000000                     _I2C1TXB	set	15723
   233   000000                     _I2C1PIE	set	15738
   234   000000                     _T2CON	set	16300
   235   000000                     _ADERRL	set	16098
   236   000000                     _ADERRH	set	16099
   237   000000                     _ADPREVL	set	16109
   238   000000                     _ADPREVH	set	16110
   239   000000                     _ADFLTRL	set	16102
   240   000000                     _ADFLTRH	set	16103
   241   000000                     _ADACCL	set	16104
   242   000000                     _ADACCH	set	16105
   243   000000                     _ADCNT	set	16107
   244   000000                     _ADRESL	set	16111
   245   000000                     _ADRESH	set	16112
   246   000000                     _ADCON0	set	16120
   247   000000                     _ADCON1	set	16121
   248   000000                     _ADPREH	set	16119
   249   000000                     _ADPREL	set	16118
   250   000000                     _ADCAP	set	16117
   251   000000                     _ADACQH	set	16116
   252   000000                     _ADPCH	set	16113
   253   000000                     _ADRPT	set	16108
   254   000000                     _ADACCU	set	16106
   255   000000                     _ADSTPTH	set	16101
   256   000000                     _ADSTPTL	set	16100
   257   000000                     _ADUTHH	set	16097
   258   000000                     _ADUTHL	set	16096
   259   000000                     _ADLTHH	set	16095
   260   000000                     _TRISD	set	16325
   261   000000                     _TRISC	set	16324
   262   000000                     _TRISB	set	16323
   263   000000                     _LATC	set	16316
   264   000000                     _LATB	set	16315
   265   000000                     _OSCTUNE	set	14814
   266   000000                     _OSCFRQ	set	14815
   267   001037                     STR_2:
   268                           
   269                           ; BSR set to: 62
   270   001037  50                 	db	80	;'P'
   271   001038  41                 	db	65	;'A'
   272   001039  30                 	db	48	;'0'
   273   00103A  2E                 	db	46
   274   00103B  6E                 	db	110	;'n'
   275   00103C  69                 	db	105	;'i'
   276   00103D  76                 	db	118	;'v'
   277   00103E  65                 	db	101	;'e'
   278   00103F  6C                 	db	108	;'l'
   279   001040  2E                 	db	46
   280   001041  76                 	db	118	;'v'
   281   001042  61                 	db	97	;'a'
   282   001043  6C                 	db	108	;'l'
   283   001044  3D                 	db	61	;'='
   284   001045  25                 	db	37
   285   001046  64                 	db	100	;'d'
   286   001047  FF                 	db	-1
   287   001048  FF                 	db	-1
   288   001049  FF                 	db	-1
   289   00104A  00                 	db	0
   290   00104B                     STR_1:
   291                           
   292                           ; BSR set to: 62
   293   00104B  6D                 	db	109	;'m'
   294   00104C  79                 	db	121	;'y'
   295   00104D  4C                 	db	76	;'L'
   296   00104E  65                 	db	101	;'e'
   297   00104F  64                 	db	100	;'d'
   298   001050  2E                 	db	46
   299   001051  70                 	db	112	;'p'
   300   001052  69                 	db	105	;'i'
   301   001053  63                 	db	99	;'c'
   302   001054  3D                 	db	61	;'='
   303   001055  30                 	db	48	;'0'
   304   001056  FF                 	db	-1
   305   001057  FF                 	db	-1
   306   001058  FF                 	db	-1
   307   001059  00                 	db	0
   308   00105A                     STR_3:
   309                           
   310                           ; BSR set to: 62
   311   00105A  6D                 	db	109	;'m'
   312   00105B  79                 	db	121	;'y'
   313   00105C  4C                 	db	76	;'L'
   314   00105D  65                 	db	101	;'e'
   315   00105E  64                 	db	100	;'d'
   316   00105F  2E                 	db	46
   317   001060  70                 	db	112	;'p'
   318   001061  69                 	db	105	;'i'
   319   001062  63                 	db	99	;'c'
   320   001063  3D                 	db	61	;'='
   321   001064  31                 	db	49	;'1'
   322   001065  FF                 	db	-1
   323   001066  FF                 	db	-1
   324   001067  FF                 	db	-1
   325   001068  00                 	db	0
   326   001069  00                 	db	0	; dummy byte at the end
   327   000000                     
   328                           	psect	nvBANK0
   329   0000EF                     __pnvBANK0:
   330                           	callstack 0
   331   0000EF                     _TMR6_InterruptHandler:
   332                           	callstack 0
   333   0000EF                     	ds	2
   334   0000F1                     _UART1_ErrorHandler:
   335                           	callstack 0
   336   0000F1                     	ds	2
   337   0000F3                     _UART1_OverrunErrorHandler:
   338                           	callstack 0
   339   0000F3                     	ds	2
   340   0000F5                     _UART1_FramingErrorHandler:
   341                           	callstack 0
   342   0000F5                     	ds	2
   343   000000                     _I2C1PIEbits	set	15738
   344   000000                     _I2C1PIRbits	set	15737
   345   000000                     _I2C1ERRbits	set	15734
   346   000000                     _I2C1CON1bits	set	15732
   347   000000                     _I2C1CON0bits	set	15731
   348   000000                     _U1ERRIRbits	set	15865
   349   000000                     _U1CON0bits	set	15858
   350   000000                     _ADCON1bits	set	16121
   351   000000                     _ADSTATbits	set	16124
   352   000000                     _ADCON2bits	set	16122
   353   000000                     _ADCON3bits	set	16123
   354   000000                     _ADCON0bits	set	16120
   355   000000                     _FVRCONbits	set	16065
   356   000000                     _PR6	set	16275
   357   000000                     _TMR6	set	16274
   358   000000                     _T6CONbits	set	16276
   359   000000                     _T6RSTbits	set	16279
   360   000000                     _T6HLTbits	set	16277
   361   000000                     _PR2	set	16299
   362   000000                     _TMR2	set	16298
   363   000000                     _T2CONbits	set	16300
   364   000000                     _T2RSTbits	set	16303
   365   000000                     _T2HLTbits	set	16301
   366   000000                     _PIE2bits	set	14738
   367   000000                     _PIE3bits	set	14739
   368   000000                     _PIR3bits	set	14755
   369   000000                     _PMD0	set	14784
   370   000000                     _OSCCON1	set	14809
   371   000000                     _OSCCON3	set	14811
   372   000000                     _OSCEN	set	14813
   373   000000                     _RB1PPS	set	14857
   374   000000                     _ANSELA	set	14912
   375   000000                     _ANSELB	set	14928
   376   000000                     _ANSELC	set	14944
   377   000000                     _ANSELD	set	14960
   378   000000                     _LATA	set	16314
   379   000000                     _LATD	set	16317
   380   000000                     _LATE	set	16318
   381   000000                     _PMD7	set	14791
   382   000000                     _PMD6	set	14790
   383   000000                     _PMD5	set	14789
   384   000000                     _PMD4	set	14788
   385   000000                     _PMD3	set	14787
   386   000000                     _PMD2	set	14786
   387   000000                     _PMD1	set	14785
   388   000000                     _TRISA	set	16322
   389   000000                     _TRISE	set	16326
   390   000000                     _INTCON0bits	set	16338
   391   000000                     _INLVLD	set	14964
   392   000000                     _SLRCOND	set	14963
   393   000000                     _ODCOND	set	14962
   394   000000                     _RD0I2C	set	14970
   395   000000                     _WPUD	set	14961
   396   000000                     _ANSELE	set	14976
   397   000000                     _INLVLC	set	14948
   398   000000                     _SLRCONC	set	14947
   399   000000                     _ODCONC	set	14946
   400   000000                     _RC3I2C	set	14954
   401   000000                     _WPUC	set	14945
   402   000000                     _INLVLB	set	14932
   403   000000                     _SLRCONB	set	14931
   404   000000                     _ODCONB	set	14930
   405   000000                     _RB1I2C	set	14938
   406   000000                     _WPUB	set	14929
   407   000000                     _I2C1SCLPPS	set	15073
   408   000000                     _I2C1SDAPPS	set	15074
   409   000000                     _INLVLE	set	14980
   410   000000                     _SLRCONE	set	14979
   411   000000                     _ODCONE	set	14978
   412   000000                     _WPUE	set	14977
   413   000000                     _INLVLA	set	14916
   414   000000                     _SLRCONA	set	14915
   415   000000                     _ODCONA	set	14914
   416   000000                     _WPUA	set	14913
   417   000000                     _RB2I2C	set	14939
   418   000000                     _RC4I2C	set	14955
   419   000000                     _RD1I2C	set	14971
   420   000000                     _U1RXPPS	set	15077
   421   000000                     _RC2PPS	set	14866
   422   000000                     _RB2PPS	set	14858
   423   000000                     _RC6PPS	set	14870
   424   000000                     _I2C1RXB	set	15722
   425   000000                     _I2C1CNT	set	15724
   426   000000                     _I2C1CON0	set	15731
   427   000000                     _U1RXB	set	15848
   428   000000                     _U1P1L	set	15852
   429   000000                     _DAC1CON1	set	16028
   430   000000                     _DAC1CON0	set	16030
   431   000000                     _FVRCON	set	16065
   432   000000                     _U1ERRIE	set	15866
   433   000000                     _U1ERRIR	set	15865
   434   000000                     _U1UIR	set	15864
   435   000000                     _U1FIFO	set	15863
   436   000000                     _U1BRGH	set	15862
   437   000000                     _U1BRGL	set	15861
   438   000000                     _U1CON2	set	15860
   439   000000                     _U1CON1	set	15859
   440   000000                     _U1CON0	set	15858
   441   000000                     _U1P3H	set	15857
   442   000000                     _U1P3L	set	15856
   443   000000                     _U1P2H	set	15855
   444   000000                     _U1P2L	set	15854
   445   000000                     _U1P1H	set	15853
   446   000000                     _PIR9bits	set	14761
   447   000000                     _PIR4bits	set	14756
   448   000000                     _U1TXB	set	15850
   449   000000                     _ADLTHL	set	16094
   450   000000                     _ADACQL	set	16115
   451   000000                     _CCPTMRS1bits	set	16223
   452   000000                     _PWM5DCL	set	16236
   453   000000                     _PWM5DCH	set	16237
   454   000000                     _PWM5CON	set	16238
   455   000000                     _T2TMR	set	16298
   456   000000                     _T2PR	set	16299
   457   000000                     _T2HLT	set	16301
   458   000000                     _T2CLKCON	set	16302
   459   000000                     _ADCLK	set	16127
   460   000000                     _ADACT	set	16126
   461   000000                     _ADREF	set	16125
   462   000000                     _ADSTAT	set	16124
   463   000000                     _ADCON3	set	16123
   464   000000                     _ADCON2	set	16122
   465   000000                     _T2RST	set	16303
   466   000000                     _T6TMR	set	16274
   467   000000                     _T6PR	set	16275
   468   000000                     _T6HLT	set	16277
   469   000000                     _T6CLKCON	set	16278
   470   000000                     _I2C1STAT1bits	set	15736
   471   000000                     _I2C1ERR	set	15734
   472   000000                     _I2C1PIR	set	15737
   473   000000                     _I2C1CLK	set	15739
   474   000000                     _I2C1CON2	set	15733
   475   000000                     _I2C1CON1	set	15732
   476   000000                     _PIE9bits	set	14745
   477   000000                     _PIR2bits	set	14754
   478   000000                     _T6RST	set	16279
   479                           
   480                           ; #config settings
   481                           
   482                           	psect	cinit
   483   002966                     __pcinit:
   484                           	callstack 0
   485   002966                     start_initialization:
   486                           	callstack 0
   487   002966                     __initialization:
   488                           	callstack 0
   489                           
   490                           ; Initialize objects allocated to BANK0 (4 bytes)
   491                           ; load TBLPTR registers with __pidataBANK0
   492   002966  0E48               	movlw	low __pidataBANK0
   493   002968  6EF6               	movwf	tblptrl,c
   494   00296A  0E2D               	movlw	high __pidataBANK0
   495   00296C  6EF7               	movwf	tblptrh,c
   496   00296E  0E00               	movlw	low (__pidataBANK0 shr (0+16))
   497   002970  6EF8               	movwf	tblptru,c
   498   002972  EE00  F0F7         	lfsr	0,__pdataBANK0
   499   002976  EE10 F004          	lfsr	1,4
   500   00297A                     copy_data0:
   501   00297A  0009               	tblrd		*+
   502   00297C  006F FFD7 FFEE     	movff	tablat,postinc0
   503   002982  50E5               	movf	postdec1,w,c
   504   002984  50E1               	movf	fsr1l,w,c
   505   002986  E1F9               	bnz	copy_data0
   506                           
   507                           ; Clear objects allocated to BIGRAM (512 bytes)
   508   002988  EE00  F124         	lfsr	0,__pbssBIGRAM
   509   00298C  EE10 F200          	lfsr	1,512
   510   002990                     clear_0:
   511   002990  6AEE               	clrf	postinc0,c
   512   002992  50E5               	movf	postdec1,w,c
   513   002994  50E1               	movf	fsr1l,w,c
   514   002996  E1FC               	bnz	clear_0
   515   002998  50E2               	movf	fsr1h,w,c
   516   00299A  E1FA               	bnz	clear_0
   517                           
   518                           ; Clear objects allocated to BANK1 (32 bytes)
   519   00299C  EE00  F100         	lfsr	0,__pbssBANK1
   520   0029A0  0E20               	movlw	32
   521   0029A2                     clear_1:
   522   0029A2  6AEE               	clrf	postinc0,c
   523   0029A4  06E8               	decf	wreg,f,c
   524   0029A6  E1FD               	bnz	clear_1
   525                           
   526                           ; Clear objects allocated to BANK0 (119 bytes)
   527   0029A8  EE00  F060         	lfsr	0,__pbssBANK0
   528   0029AC  0E77               	movlw	119
   529   0029AE                     clear_2:
   530   0029AE  6AEE               	clrf	postinc0,c
   531   0029B0  06E8               	decf	wreg,f,c
   532   0029B2  E1FD               	bnz	clear_2
   533                           
   534                           ; Clear objects allocated to COMRAM (1 bytes)
   535   0029B4  6A5F               	clrf	__pbssCOMRAM& (0+255),c
   536                           
   537                           ;
   538                           ; Setup IVTBASE
   539                           ;
   540   0029B6  0E08               	movlw	(ivt0x8_base shr 0)& (0+255)
   541   0029B8  6ED5               	movwf	213,c
   542   0029BA  0E00               	movlw	(ivt0x8_base shr (0+8))& (0+255)
   543   0029BC  6ED6               	movwf	214,c
   544   0029BE  0E00               	movlw	(ivt0x8_base shr (0+16))& (0+255)
   545   0029C0  6ED7               	movwf	215,c
   546   0029C2                     end_of_initialization:
   547                           	callstack 0
   548   0029C2                     __end_of__initialization:
   549                           	callstack 0
   550   0029C2  0100               	movlb	0
   551   0029C4  EF4E  F016         	goto	_main	;jump to C main() function
   552                           
   553                           	psect	bssCOMRAM
   554   00005F                     __pbssCOMRAM:
   555                           	callstack 0
   556   00005F                     _flags:
   557                           	callstack 0
   558   00005F                     	ds	1
   559                           
   560                           	psect	bssBANK0
   561   000060                     __pbssBANK0:
   562                           	callstack 0
   563   000060                     _I2C1_Status:
   564                           	callstack 0
   565   000060                     	ds	36
   566   000084                     _x:
   567                           	callstack 0
   568   000084                     	ds	32
   569   0000A4                     _maxSample:
   570                           	callstack 0
   571   0000A4                     	ds	4
   572   0000A8                     _angulo:
   573                           	callstack 0
   574   0000A8                     	ds	4
   575   0000AC                     _amplitud:
   576                           	callstack 0
   577   0000AC                     	ds	4
   578   0000B0                     _adc_value:
   579                           	callstack 0
   580   0000B0                     	ds	4
   581   0000B4                     _width:
   582                           	callstack 0
   583   0000B4                     	ds	2
   584   0000B6                     _prec:
   585                           	callstack 0
   586   0000B6                     	ds	2
   587   0000B8                     _k:
   588                           	callstack 0
   589   0000B8                     	ds	2
   590   0000BA                     _bufferIndex:
   591                           	callstack 0
   592   0000BA                     	ds	2
   593   0000BC                     _bandera:
   594                           	callstack 0
   595   0000BC                     	ds	2
   596   0000BE                     _ADC_90_Grados:
   597                           	callstack 0
   598   0000BE                     	ds	2
   599   0000C0                     _ADC_0_Grados:
   600                           	callstack 0
   601   0000C0                     	ds	2
   602   0000C2                     _uart1RxLastError:
   603                           	callstack 0
   604   0000C2                     	ds	1
   605   0000C3                     _buffer:
   606                           	callstack 0
   607   0000C3                     	ds	20
   608                           
   609                           	psect	dataBANK0
   610   0000F7                     __pdataBANK0:
   611                           	callstack 0
   612   0000F7                     _puntoDeQuiebre:
   613                           	callstack 0
   614   0000F7                     	ds	4
   615                           
   616                           	psect	bssBANK1
   617   000100                     __pbssBANK1:
   618                           	callstack 0
   619   000100                     _dbuf:
   620                           	callstack 0
   621   000100                     	ds	32
   622                           
   623                           	psect	bssBIGRAM
   624   000124                     __pbssBIGRAM:
   625                           	callstack 0
   626   000124                     _sampleBuffer:
   627                           	callstack 0
   628   000124                     	ds	512
   629                           
   630                           	psect	cstackBANK1
   631   000120                     __pcstackBANK1:
   632                           	callstack 0
   633   000120                     UART1_SetFramingErrorHandler@interruptHandler:
   634                           	callstack 0
   635   000120                     UART1_SetOverrunErrorHandler@interruptHandler:
   636                           	callstack 0
   637   000120                     UART1_SetErrorHandler@interruptHandler:
   638                           	callstack 0
   639   000120                     PWM5_LoadDutyValue@dutyValue:
   640                           	callstack 0
   641   000120                     TMR6_SetInterruptHandler@InterruptHandler:
   642                           	callstack 0
   643                           
   644                           ; 2 bytes @ 0x0
   645   000120                     	ds	2
   646   000122                     ??_PWM5_LoadDutyValue:
   647                           
   648                           ; 1 bytes @ 0x2
   649   000122                     	ds	2
   650   000124                     
   651                           ; 1 bytes @ 0x4
   652                           
   653                           	psect	cstackBANK0
   654   0000D7                     __pcstackBANK0:
   655                           	callstack 0
   656   0000D7                     _map$3492:
   657                           	callstack 0
   658                           
   659                           ; 4 bytes @ 0x0
   660   0000D7                     	ds	4
   661   0000DB                     ?___fltol:
   662                           	callstack 0
   663   0000DB                     ___fltol@f1:
   664                           	callstack 0
   665                           
   666                           ; 4 bytes @ 0x4
   667   0000DB                     	ds	4
   668   0000DF                     ??___fltol:
   669                           
   670                           ; 1 bytes @ 0x8
   671   0000DF                     	ds	4
   672   0000E3                     ___fltol@sign1:
   673                           	callstack 0
   674                           
   675                           ; 1 bytes @ 0xC
   676   0000E3                     	ds	1
   677   0000E4                     ___fltol@exp1:
   678                           	callstack 0
   679                           
   680                           ; 1 bytes @ 0xD
   681   0000E4                     	ds	1
   682   0000E5                     ??_INTERRUPT_InterruptManager:
   683                           
   684                           ; 1 bytes @ 0xE
   685   0000E5                     	ds	8
   686   0000ED                     INTERRUPT_InterruptManager@mapeado:
   687                           	callstack 0
   688                           
   689                           ; 2 bytes @ 0x16
   690   0000ED                     	ds	2
   691                           
   692                           	psect	cstackCOMRAM
   693   000001                     __pcstackCOMRAM:
   694                           	callstack 0
   695   000001                     ?_ADCC_GetSingleConversion:
   696                           	callstack 0
   697   000001                     ?___awdiv:
   698                           	callstack 0
   699   000001                     ?___awmod:
   700                           	callstack 0
   701   000001                     ?___fladd:
   702                           	callstack 0
   703   000001                     UART1_Write@txData:
   704                           	callstack 0
   705   000001                     ___awdiv@dividend:
   706                           	callstack 0
   707   000001                     ___awmod@dividend:
   708                           	callstack 0
   709   000001                     ___flge@ff1:
   710                           	callstack 0
   711   000001                     ___fladd@b:
   712                           	callstack 0
   713                           
   714                           ; 4 bytes @ 0x0
   715   000001                     	ds	1
   716   000002                     putch@txData:
   717                           	callstack 0
   718   000002                     UART_SendString@str:
   719                           	callstack 0
   720                           
   721                           ; 1 bytes @ 0x1
   722   000002                     	ds	1
   723   000003                     ??_ADCC_GetSingleConversion:
   724   000003                     ___awdiv@divisor:
   725                           	callstack 0
   726   000003                     ___awmod@divisor:
   727                           	callstack 0
   728   000003                     fputc@c:
   729                           	callstack 0
   730                           
   731                           ; 2 bytes @ 0x2
   732   000003                     	ds	2
   733   000005                     ADCC_GetSingleConversion@channel:
   734                           	callstack 0
   735   000005                     ___awdiv@counter:
   736                           	callstack 0
   737   000005                     ___awmod@counter:
   738                           	callstack 0
   739   000005                     fputc@fp:
   740                           	callstack 0
   741   000005                     ___flge@ff2:
   742                           	callstack 0
   743   000005                     ___fladd@a:
   744                           	callstack 0
   745                           
   746                           ; 4 bytes @ 0x4
   747   000005                     	ds	1
   748   000006                     ??_fputc:
   749   000006                     ?___xxtofl:
   750                           	callstack 0
   751   000006                     ___awdiv@sign:
   752                           	callstack 0
   753   000006                     ___awmod@sign:
   754                           	callstack 0
   755   000006                     ___xxtofl@val:
   756                           	callstack 0
   757                           
   758                           ; 4 bytes @ 0x5
   759   000006                     	ds	1
   760   000007                     ?_abs:
   761                           	callstack 0
   762   000007                     ___awdiv@quotient:
   763                           	callstack 0
   764   000007                     abs@a:
   765                           	callstack 0
   766                           
   767                           ; 2 bytes @ 0x6
   768   000007                     	ds	2
   769   000009                     ??___fladd:
   770   000009                     ??_abs:
   771   000009                     ??___flge:
   772                           
   773                           ; 1 bytes @ 0x8
   774   000009                     	ds	1
   775   00000A                     ??___xxtofl:
   776                           
   777                           ; 1 bytes @ 0x9
   778   00000A                     	ds	1
   779   00000B                     vfpfcnvrt@fp:
   780                           	callstack 0
   781                           
   782                           ; 1 bytes @ 0xA
   783   00000B                     	ds	1
   784   00000C                     vfpfcnvrt@fmt:
   785                           	callstack 0
   786                           
   787                           ; 1 bytes @ 0xB
   788   00000C                     	ds	1
   789   00000D                     ___fladd@signs:
   790                           	callstack 0
   791   00000D                     vfpfcnvrt@ap:
   792                           	callstack 0
   793                           
   794                           ; 1 bytes @ 0xC
   795   00000D                     	ds	1
   796   00000E                     ??_vfpfcnvrt:
   797   00000E                     ___fladd@aexp:
   798                           	callstack 0
   799   00000E                     ___xxtofl@sign:
   800                           	callstack 0
   801                           
   802                           ; 1 bytes @ 0xD
   803   00000E                     	ds	1
   804   00000F                     ___fladd@bexp:
   805                           	callstack 0
   806   00000F                     ___xxtofl@exp:
   807                           	callstack 0
   808   00000F                     vfpfcnvrt@done:
   809                           	callstack 0
   810                           
   811                           ; 1 bytes @ 0xE
   812   00000F                     	ds	1
   813   000010                     ___fladd@grs:
   814                           	callstack 0
   815   000010                     vfpfcnvrt@cp:
   816                           	callstack 0
   817   000010                     ___xxtofl@arg:
   818                           	callstack 0
   819                           
   820                           ; 4 bytes @ 0xF
   821   000010                     	ds	1
   822   000011                     ?___flsub:
   823                           	callstack 0
   824   000011                     ___flsub@b:
   825                           	callstack 0
   826   000011                     vfpfcnvrt@convarg:
   827                           	callstack 0
   828                           
   829                           ; 4 bytes @ 0x10
   830   000011                     	ds	4
   831   000015                     vfpfcnvrt@c:
   832                           	callstack 0
   833   000015                     ___flsub@a:
   834                           	callstack 0
   835                           
   836                           ; 4 bytes @ 0x14
   837   000015                     	ds	1
   838   000016                     ?_vfprintf:
   839                           	callstack 0
   840   000016                     vfprintf@fp:
   841                           	callstack 0
   842                           
   843                           ; 1 bytes @ 0x15
   844   000016                     	ds	1
   845   000017                     vfprintf@fmt:
   846                           	callstack 0
   847                           
   848                           ; 1 bytes @ 0x16
   849   000017                     	ds	1
   850   000018                     vfprintf@ap:
   851                           	callstack 0
   852                           
   853                           ; 1 bytes @ 0x17
   854   000018                     	ds	1
   855   000019                     ?___flmul:
   856                           	callstack 0
   857   000019                     vfprintf@cfmt:
   858                           	callstack 0
   859   000019                     ___flmul@b:
   860                           	callstack 0
   861                           
   862                           ; 4 bytes @ 0x18
   863   000019                     	ds	1
   864   00001A                     ?_sprintf:
   865                           	callstack 0
   866   00001A                     sprintf@s:
   867                           	callstack 0
   868                           
   869                           ; 1 bytes @ 0x19
   870   00001A                     	ds	1
   871   00001B                     sprintf@fmt:
   872                           	callstack 0
   873                           
   874                           ; 1 bytes @ 0x1A
   875   00001B                     	ds	2
   876   00001D                     ___flmul@a:
   877                           	callstack 0
   878                           
   879                           ; 4 bytes @ 0x1C
   880   00001D                     	ds	1
   881   00001E                     sprintf@ap:
   882                           	callstack 0
   883                           
   884                           ; 1 bytes @ 0x1D
   885   00001E                     	ds	1
   886   00001F                     sprintf@f:
   887                           	callstack 0
   888                           
   889                           ; 12 bytes @ 0x1E
   890   00001F                     	ds	2
   891   000021                     ??___flmul:
   892                           
   893                           ; 1 bytes @ 0x20
   894   000021                     	ds	4
   895   000025                     ___flmul@sign:
   896                           	callstack 0
   897                           
   898                           ; 1 bytes @ 0x24
   899   000025                     	ds	1
   900   000026                     ___flmul@grs:
   901                           	callstack 0
   902                           
   903                           ; 4 bytes @ 0x25
   904   000026                     	ds	4
   905   00002A                     ___flmul@aexp:
   906                           	callstack 0
   907                           
   908                           ; 1 bytes @ 0x29
   909   00002A                     	ds	1
   910   00002B                     ___flmul@bexp:
   911                           	callstack 0
   912                           
   913                           ; 1 bytes @ 0x2A
   914   00002B                     	ds	1
   915   00002C                     ___flmul@prod:
   916                           	callstack 0
   917                           
   918                           ; 4 bytes @ 0x2B
   919   00002C                     	ds	4
   920   000030                     ___flmul@temp:
   921                           	callstack 0
   922                           
   923                           ; 2 bytes @ 0x2F
   924   000030                     	ds	2
   925   000032                     ?___fldiv:
   926                           	callstack 0
   927   000032                     ___fldiv@b:
   928                           	callstack 0
   929                           
   930                           ; 4 bytes @ 0x31
   931   000032                     	ds	4
   932   000036                     ___fldiv@a:
   933                           	callstack 0
   934                           
   935                           ; 4 bytes @ 0x35
   936   000036                     	ds	4
   937   00003A                     ??___fldiv:
   938                           
   939                           ; 1 bytes @ 0x39
   940   00003A                     	ds	4
   941   00003E                     ___fldiv@rem:
   942                           	callstack 0
   943                           
   944                           ; 4 bytes @ 0x3D
   945   00003E                     	ds	4
   946   000042                     ___fldiv@sign:
   947                           	callstack 0
   948                           
   949                           ; 1 bytes @ 0x41
   950   000042                     	ds	1
   951   000043                     ___fldiv@new_exp:
   952                           	callstack 0
   953                           
   954                           ; 2 bytes @ 0x42
   955   000043                     	ds	2
   956   000045                     ___fldiv@grs:
   957                           	callstack 0
   958                           
   959                           ; 4 bytes @ 0x44
   960   000045                     	ds	4
   961   000049                     ___fldiv@bexp:
   962                           	callstack 0
   963                           
   964                           ; 1 bytes @ 0x48
   965   000049                     	ds	1
   966   00004A                     ___fldiv@aexp:
   967                           	callstack 0
   968                           
   969                           ; 1 bytes @ 0x49
   970   00004A                     	ds	1
   971   00004B                     ?_map:
   972                           	callstack 0
   973   00004B                     map@x:
   974                           	callstack 0
   975                           
   976                           ; 4 bytes @ 0x4A
   977   00004B                     	ds	4
   978   00004F                     map@in_min:
   979                           	callstack 0
   980                           
   981                           ; 4 bytes @ 0x4E
   982   00004F                     	ds	4
   983   000053                     map@in_max:
   984                           	callstack 0
   985                           
   986                           ; 4 bytes @ 0x52
   987   000053                     	ds	4
   988   000057                     map@out_min:
   989                           	callstack 0
   990                           
   991                           ; 4 bytes @ 0x56
   992   000057                     	ds	4
   993   00005B                     map@out_max:
   994                           	callstack 0
   995                           
   996                           ; 4 bytes @ 0x5A
   997   00005B                     	ds	4
   998   00005F                     
   999                           ; 1 bytes @ 0x5E
  1000 ;;
  1001 ;;Main: autosize = 0, tempsize = 0, incstack = 0, save=0
  1002 ;;
  1003 ;; *************** function _main *****************
  1004 ;; Defined at:
  1005 ;;		line 71 in file "main.c"
  1006 ;; Parameters:    Size  Location     Type
  1007 ;;		None
  1008 ;; Auto vars:     Size  Location     Type
  1009 ;;  dc              2    0        unsigned short 
  1010 ;; Return value:  Size  Location     Type
  1011 ;;                  1    wreg      void 
  1012 ;; Registers used:
  1013 ;;		wreg, status,2, status,0, cstack
  1014 ;; Tracked objects:
  1015 ;;		On entry : 0/0
  1016 ;;		On exit  : 0/0
  1017 ;;		Unchanged: 0/0
  1018 ;; Data sizes:     COMRAM   BANK0   BANK1   BANK2   BANK3   BANK4   BANK5   BANK6   BANK7   BANK8   BANK9  BANK10  BANK1
      +1  BANK12  BANK13  BANK14  BANK15
  1019 ;;      Params:         0       0       0       0       0       0       0       0       0       0       0       0       
      +0       0       0       0       0
  1020 ;;      Locals:         0       0       0       0       0       0       0       0       0       0       0       0       
      +0       0       0       0       0
  1021 ;;      Temps:          0       0       0       0       0       0       0       0       0       0       0       0       
      +0       0       0       0       0
  1022 ;;      Totals:         0       0       0       0       0       0       0       0       0       0       0       0       
      +0       0       0       0       0
  1023 ;;Total ram usage:        0 bytes
  1024 ;; Hardware stack levels required when called: 10
  1025 ;; This function calls:
  1026 ;;		_PWM5_LoadDutyValue
  1027 ;;		_SYSTEM_Initialize
  1028 ;; This function is called by:
  1029 ;;		Startup code after reset
  1030 ;; This function uses a non-reentrant model
  1031 ;;
  1032                           
  1033                           	psect	text0
  1034   002C9C                     __ptext0:
  1035                           	callstack 0
  1036   002C9C                     _main:
  1037                           	callstack 21
  1038   002C9C                     
  1039                           ;main.c: 74:     SYSTEM_Initialize();
  1040   002C9C  ECA5  F015         	call	_SYSTEM_Initialize	;wreg free
  1041   002CA0                     
  1042                           ;main.c: 76:     (INTCON0bits.GIE = 1);
  1043   002CA0  8ED2               	bsf	210,7,c	;volatile
  1044   002CA2                     l5629:
  1045                           
  1046                           ;main.c: 83:     {;main.c: 84:         PWM5_LoadDutyValue(249);
  1047   002CA2  0E00               	movlw	0
  1048   002CA4  0101               	movlb	1	; () banked
  1049   002CA6  6F21               	movwf	(PWM5_LoadDutyValue@dutyValue+1)& (0+255),b
  1050   002CA8  0EF9               	movlw	249
  1051   002CAA  6F20               	movwf	PWM5_LoadDutyValue@dutyValue& (0+255),b
  1052   002CAC  EC56  F015         	call	_PWM5_LoadDutyValue	;wreg free
  1053   002CB0  EF51  F016         	goto	l5629
  1054   002CB4  EF0D  F000         	goto	start
  1055   002CB8                     __end_of_main:
  1056                           	callstack 0
  1057                           
  1058 ;; *************** function _SYSTEM_Initialize *****************
  1059 ;; Defined at:
  1060 ;;		line 50 in file "mcc_generated_files/mcc.c"
  1061 ;; Parameters:    Size  Location     Type
  1062 ;;		None
  1063 ;; Auto vars:     Size  Location     Type
  1064 ;;		None
  1065 ;; Return value:  Size  Location     Type
  1066 ;;                  1    wreg      void 
  1067 ;; Registers used:
  1068 ;;		wreg, status,2, status,0, cstack
  1069 ;; Tracked objects:
  1070 ;;		On entry : 0/0
  1071 ;;		On exit  : 0/0
  1072 ;;		Unchanged: 0/0
  1073 ;; Data sizes:     COMRAM   BANK0   BANK1   BANK2   BANK3   BANK4   BANK5   BANK6   BANK7   BANK8   BANK9  BANK10  BANK1
      +1  BANK12  BANK13  BANK14  BANK15
  1074 ;;      Params:         0       0       0       0       0       0       0       0       0       0       0       0       
      +0       0       0       0       0
  1075 ;;      Locals:         0       0       0       0       0       0       0       0       0       0       0       0       
      +0       0       0       0       0
  1076 ;;      Temps:          0       0       0       0       0       0       0       0       0       0       0       0       
      +0       0       0       0       0
  1077 ;;      Totals:         0       0       0       0       0       0       0       0       0       0       0       0       
      +0       0       0       0       0
  1078 ;;Total ram usage:        0 bytes
  1079 ;; Hardware stack levels used: 1
  1080 ;; Hardware stack levels required when called: 9
  1081 ;; This function calls:
  1082 ;;		_ADCC_Initialize
  1083 ;;		_DAC1_Initialize
  1084 ;;		_FVR_Initialize
  1085 ;;		_I2C1_Initialize
  1086 ;;		_INTERRUPT_Initialize
  1087 ;;		_OSCILLATOR_Initialize
  1088 ;;		_PIN_MANAGER_Initialize
  1089 ;;		_PMD_Initialize
  1090 ;;		_PWM5_Initialize
  1091 ;;		_TMR2_Initialize
  1092 ;;		_TMR6_Initialize
  1093 ;;		_UART1_Initialize
  1094 ;; This function is called by:
  1095 ;;		_main
  1096 ;; This function uses a non-reentrant model
  1097 ;;
  1098                           
  1099                           	psect	text1
  1100   002B4A                     __ptext1:
  1101                           	callstack 0
  1102   002B4A                     _SYSTEM_Initialize:
  1103                           	callstack 21
  1104   002B4A                     
  1105                           ;mcc_generated_files/mcc.c: 52:     INTERRUPT_Initialize();
  1106   002B4A  ECA6  F016         	call	_INTERRUPT_Initialize	;wreg free
  1107   002B4E                     
  1108                           ;mcc_generated_files/mcc.c: 53:     PMD_Initialize();
  1109   002B4E  EC1C  F016         	call	_PMD_Initialize	;wreg free
  1110   002B52                     
  1111                           ;mcc_generated_files/mcc.c: 54:     I2C1_Initialize();
  1112   002B52  EC2E  F016         	call	_I2C1_Initialize	;wreg free
  1113   002B56                     
  1114                           ;mcc_generated_files/mcc.c: 55:     PIN_MANAGER_Initialize();
  1115   002B56  ECCF  F013         	call	_PIN_MANAGER_Initialize	;wreg free
  1116   002B5A                     
  1117                           ;mcc_generated_files/mcc.c: 56:     OSCILLATOR_Initialize();
  1118   002B5A  EC75  F016         	call	_OSCILLATOR_Initialize	;wreg free
  1119   002B5E                     
  1120                           ;mcc_generated_files/mcc.c: 57:     FVR_Initialize();
  1121   002B5E  ECA0  F016         	call	_FVR_Initialize	;wreg free
  1122   002B62                     
  1123                           ;mcc_generated_files/mcc.c: 58:     TMR6_Initialize();
  1124   002B62  ECF0  F015         	call	_TMR6_Initialize	;wreg free
  1125   002B66                     
  1126                           ;mcc_generated_files/mcc.c: 59:     ADCC_Initialize();
  1127   002B66  ECE4  F014         	call	_ADCC_Initialize	;wreg free
  1128   002B6A                     
  1129                           ;mcc_generated_files/mcc.c: 60:     DAC1_Initialize();
  1130   002B6A  EC81  F016         	call	_DAC1_Initialize	;wreg free
  1131   002B6E                     
  1132                           ;mcc_generated_files/mcc.c: 61:     PWM5_Initialize();
  1133   002B6E  EC69  F016         	call	_PWM5_Initialize	;wreg free
  1134   002B72                     
  1135                           ;mcc_generated_files/mcc.c: 62:     TMR2_Initialize();
  1136   002B72  EC3F  F016         	call	_TMR2_Initialize	;wreg free
  1137   002B76                     
  1138                           ;mcc_generated_files/mcc.c: 63:     UART1_Initialize();
  1139   002B76  EC7B  F014         	call	_UART1_Initialize	;wreg free
  1140   002B7A  0012               	return		;funcret
  1141   002B7C                     __end_of_SYSTEM_Initialize:
  1142                           	callstack 0
  1143                           
  1144 ;; *************** function _UART1_Initialize *****************
  1145 ;; Defined at:
  1146 ;;		line 66 in file "mcc_generated_files/uart1.c"
  1147 ;; Parameters:    Size  Location     Type
  1148 ;;		None
  1149 ;; Auto vars:     Size  Location     Type
  1150 ;;		None
  1151 ;; Return value:  Size  Location     Type
  1152 ;;                  1    wreg      void 
  1153 ;; Registers used:
  1154 ;;		wreg, status,2, status,0, cstack
  1155 ;; Tracked objects:
  1156 ;;		On entry : 0/0
  1157 ;;		On exit  : 0/0
  1158 ;;		Unchanged: 0/0
  1159 ;; Data sizes:     COMRAM   BANK0   BANK1   BANK2   BANK3   BANK4   BANK5   BANK6   BANK7   BANK8   BANK9  BANK10  BANK1
      +1  BANK12  BANK13  BANK14  BANK15
  1160 ;;      Params:         0       0       0       0       0       0       0       0       0       0       0       0       
      +0       0       0       0       0
  1161 ;;      Locals:         0       0       0       0       0       0       0       0       0       0       0       0       
      +0       0       0       0       0
  1162 ;;      Temps:          0       0       0       0       0       0       0       0       0       0       0       0       
      +0       0       0       0       0
  1163 ;;      Totals:         0       0       0       0       0       0       0       0       0       0       0       0       
      +0       0       0       0       0
  1164 ;;Total ram usage:        0 bytes
  1165 ;; Hardware stack levels used: 1
  1166 ;; Hardware stack levels required when called: 8
  1167 ;; This function calls:
  1168 ;;		_UART1_SetErrorHandler
  1169 ;;		_UART1_SetFramingErrorHandler
  1170 ;;		_UART1_SetOverrunErrorHandler
  1171 ;; This function is called by:
  1172 ;;		_SYSTEM_Initialize
  1173 ;; This function uses a non-reentrant model
  1174 ;;
  1175                           
  1176                           	psect	text2
  1177   0028F6                     __ptext2:
  1178                           	callstack 0
  1179   0028F6                     _UART1_Initialize:
  1180                           	callstack 21
  1181   0028F6                     
  1182                           ;mcc_generated_files/uart1.c: 73:     U1P1L = 0x00;
  1183   0028F6  0E00               	movlw	0
  1184   0028F8  013D               	movlb	61	; () banked
  1185   0028FA  6FEC               	movwf	236,b	;volatile
  1186                           
  1187                           ;mcc_generated_files/uart1.c: 76:     U1P1H = 0x00;
  1188   0028FC  0E00               	movlw	0
  1189   0028FE  6FED               	movwf	237,b	;volatile
  1190                           
  1191                           ;mcc_generated_files/uart1.c: 79:     U1P2L = 0x00;
  1192   002900  0E00               	movlw	0
  1193   002902  6FEE               	movwf	238,b	;volatile
  1194                           
  1195                           ;mcc_generated_files/uart1.c: 82:     U1P2H = 0x00;
  1196   002904  0E00               	movlw	0
  1197   002906  6FEF               	movwf	239,b	;volatile
  1198                           
  1199                           ;mcc_generated_files/uart1.c: 85:     U1P3L = 0x00;
  1200   002908  0E00               	movlw	0
  1201   00290A  6FF0               	movwf	240,b	;volatile
  1202                           
  1203                           ;mcc_generated_files/uart1.c: 88:     U1P3H = 0x00;
  1204   00290C  0E00               	movlw	0
  1205   00290E  6FF1               	movwf	241,b	;volatile
  1206                           
  1207                           ;mcc_generated_files/uart1.c: 91:     U1CON0 = 0xB0;
  1208   002910  0EB0               	movlw	176
  1209   002912  6FF2               	movwf	242,b	;volatile
  1210                           
  1211                           ;mcc_generated_files/uart1.c: 94:     U1CON1 = 0x80;
  1212   002914  0E80               	movlw	128
  1213   002916  6FF3               	movwf	243,b	;volatile
  1214                           
  1215                           ;mcc_generated_files/uart1.c: 97:     U1CON2 = 0x00;
  1216   002918  0E00               	movlw	0
  1217   00291A  6FF4               	movwf	244,b	;volatile
  1218                           
  1219                           ;mcc_generated_files/uart1.c: 100:     U1BRGL = 0x82;
  1220   00291C  0E82               	movlw	130
  1221   00291E  6FF5               	movwf	245,b	;volatile
  1222                           
  1223                           ;mcc_generated_files/uart1.c: 103:     U1BRGH = 0x06;
  1224   002920  0E06               	movlw	6
  1225   002922  6FF6               	movwf	246,b	;volatile
  1226                           
  1227                           ;mcc_generated_files/uart1.c: 106:     U1FIFO = 0x00;
  1228   002924  0E00               	movlw	0
  1229   002926  6FF7               	movwf	247,b	;volatile
  1230                           
  1231                           ;mcc_generated_files/uart1.c: 109:     U1UIR = 0x00;
  1232   002928  0E00               	movlw	0
  1233   00292A  6FF8               	movwf	248,b	;volatile
  1234                           
  1235                           ;mcc_generated_files/uart1.c: 112:     U1ERRIR = 0x00;
  1236   00292C  0E00               	movlw	0
  1237   00292E  6FF9               	movwf	249,b	;volatile
  1238                           
  1239                           ;mcc_generated_files/uart1.c: 115:     U1ERRIE = 0x00;
  1240   002930  0E00               	movlw	0
  1241   002932  6FFA               	movwf	250,b	;volatile
  1242   002934                     
  1243                           ; BSR set to: 61
  1244                           ;mcc_generated_files/uart1.c: 118:     UART1_SetFramingErrorHandler(UART1_DefaultFraming
      +                          ErrorHandler);
  1245   002934  0E00               	movlw	0
  1246   002936  0101               	movlb	1	; () banked
  1247   002938  6F20               	movwf	UART1_SetFramingErrorHandler@interruptHandler& (0+255),b
  1248   00293A  0E00               	movlw	0
  1249   00293C  6F21               	movwf	(UART1_SetFramingErrorHandler@interruptHandler+1)& (0+255),b
  1250   00293E  EC8C  F016         	call	_UART1_SetFramingErrorHandler	;wreg free
  1251   002942                     
  1252                           ;mcc_generated_files/uart1.c: 119:     UART1_SetOverrunErrorHandler(UART1_DefaultOverrun
      +                          ErrorHandler);
  1253   002942  0E00               	movlw	0
  1254   002944  0101               	movlb	1	; () banked
  1255   002946  6F20               	movwf	UART1_SetOverrunErrorHandler@interruptHandler& (0+255),b
  1256   002948  0E00               	movlw	0
  1257   00294A  6F21               	movwf	(UART1_SetOverrunErrorHandler@interruptHandler+1)& (0+255),b
  1258   00294C  EC87  F016         	call	_UART1_SetOverrunErrorHandler	;wreg free
  1259   002950                     
  1260                           ;mcc_generated_files/uart1.c: 120:     UART1_SetErrorHandler(UART1_DefaultErrorHandler);
  1261   002950  0E00               	movlw	0
  1262   002952  0101               	movlb	1	; () banked
  1263   002954  6F20               	movwf	UART1_SetErrorHandler@interruptHandler& (0+255),b
  1264   002956  0E00               	movlw	0
  1265   002958  6F21               	movwf	(UART1_SetErrorHandler@interruptHandler+1)& (0+255),b
  1266   00295A  EC91  F016         	call	_UART1_SetErrorHandler	;wreg free
  1267   00295E                     
  1268                           ;mcc_generated_files/uart1.c: 122:     uart1RxLastError.status = 0;
  1269   00295E  0E00               	movlw	0
  1270   002960  0100               	movlb	0	; () banked
  1271   002962  6FC2               	movwf	_uart1RxLastError& (0+255),b	;volatile
  1272   002964                     
  1273                           ; BSR set to: 0
  1274   002964  0012               	return		;funcret
  1275   002966                     __end_of_UART1_Initialize:
  1276                           	callstack 0
  1277                           
  1278 ;; *************** function _UART1_SetOverrunErrorHandler *****************
  1279 ;; Defined at:
  1280 ;;		line 204 in file "mcc_generated_files/uart1.c"
  1281 ;; Parameters:    Size  Location     Type
  1282 ;;  interruptHan    2    0[BANK1 ] PTR FTN()void 
  1283 ;;		 -> UART1_DefaultOverrunErrorHandler(1), 
  1284 ;; Auto vars:     Size  Location     Type
  1285 ;;		None
  1286 ;; Return value:  Size  Location     Type
  1287 ;;                  1    wreg      void 
  1288 ;; Registers used:
  1289 ;;		wreg, status,2, status,0
  1290 ;; Tracked objects:
  1291 ;;		On entry : 0/0
  1292 ;;		On exit  : 0/0
  1293 ;;		Unchanged: 0/0
  1294 ;; Data sizes:     COMRAM   BANK0   BANK1   BANK2   BANK3   BANK4   BANK5   BANK6   BANK7   BANK8   BANK9  BANK10  BANK1
      +1  BANK12  BANK13  BANK14  BANK15
  1295 ;;      Params:         0       0       2       0       0       0       0       0       0       0       0       0       
      +0       0       0       0       0
  1296 ;;      Locals:         0       0       0       0       0       0       0       0       0       0       0       0       
      +0       0       0       0       0
  1297 ;;      Temps:          0       0       0       0       0       0       0       0       0       0       0       0       
      +0       0       0       0       0
  1298 ;;      Totals:         0       0       2       0       0       0       0       0       0       0       0       0       
      +0       0       0       0       0
  1299 ;;Total ram usage:        2 bytes
  1300 ;; Hardware stack levels used: 1
  1301 ;; Hardware stack levels required when called: 7
  1302 ;; This function calls:
  1303 ;;		Nothing
  1304 ;; This function is called by:
  1305 ;;		_UART1_Initialize
  1306 ;; This function uses a non-reentrant model
  1307 ;;
  1308                           
  1309                           	psect	text3
  1310   002D0E                     __ptext3:
  1311                           	callstack 0
  1312   002D0E                     _UART1_SetOverrunErrorHandler:
  1313                           	callstack 21
  1314   002D0E                     
  1315                           ;mcc_generated_files/uart1.c: 205:     UART1_OverrunErrorHandler = interruptHandler;
  1316   002D0E  C120  F0F3         	movff	UART1_SetOverrunErrorHandler@interruptHandler,_UART1_OverrunErrorHandler
  1317   002D12  C121  F0F4         	movff	UART1_SetOverrunErrorHandler@interruptHandler+1,_UART1_OverrunErrorHandler+1
  1318   002D16  0012               	return		;funcret
  1319   002D18                     __end_of_UART1_SetOverrunErrorHandler:
  1320                           	callstack 0
  1321                           
  1322 ;; *************** function _UART1_SetFramingErrorHandler *****************
  1323 ;; Defined at:
  1324 ;;		line 200 in file "mcc_generated_files/uart1.c"
  1325 ;; Parameters:    Size  Location     Type
  1326 ;;  interruptHan    2    0[BANK1 ] PTR FTN()void 
  1327 ;;		 -> UART1_DefaultFramingErrorHandler(1), 
  1328 ;; Auto vars:     Size  Location     Type
  1329 ;;		None
  1330 ;; Return value:  Size  Location     Type
  1331 ;;                  1    wreg      void 
  1332 ;; Registers used:
  1333 ;;		wreg, status,2, status,0
  1334 ;; Tracked objects:
  1335 ;;		On entry : 0/0
  1336 ;;		On exit  : 0/0
  1337 ;;		Unchanged: 0/0
  1338 ;; Data sizes:     COMRAM   BANK0   BANK1   BANK2   BANK3   BANK4   BANK5   BANK6   BANK7   BANK8   BANK9  BANK10  BANK1
      +1  BANK12  BANK13  BANK14  BANK15
  1339 ;;      Params:         0       0       2       0       0       0       0       0       0       0       0       0       
      +0       0       0       0       0
  1340 ;;      Locals:         0       0       0       0       0       0       0       0       0       0       0       0       
      +0       0       0       0       0
  1341 ;;      Temps:          0       0       0       0       0       0       0       0       0       0       0       0       
      +0       0       0       0       0
  1342 ;;      Totals:         0       0       2       0       0       0       0       0       0       0       0       0       
      +0       0       0       0       0
  1343 ;;Total ram usage:        2 bytes
  1344 ;; Hardware stack levels used: 1
  1345 ;; Hardware stack levels required when called: 7
  1346 ;; This function calls:
  1347 ;;		Nothing
  1348 ;; This function is called by:
  1349 ;;		_UART1_Initialize
  1350 ;; This function uses a non-reentrant model
  1351 ;;
  1352                           
  1353                           	psect	text4
  1354   002D18                     __ptext4:
  1355                           	callstack 0
  1356   002D18                     _UART1_SetFramingErrorHandler:
  1357                           	callstack 21
  1358   002D18                     
  1359                           ;mcc_generated_files/uart1.c: 201:     UART1_FramingErrorHandler = interruptHandler;
  1360   002D18  C120  F0F5         	movff	UART1_SetFramingErrorHandler@interruptHandler,_UART1_FramingErrorHandler
  1361   002D1C  C121  F0F6         	movff	UART1_SetFramingErrorHandler@interruptHandler+1,_UART1_FramingErrorHandler+1
  1362   002D20  0012               	return		;funcret
  1363   002D22                     __end_of_UART1_SetFramingErrorHandler:
  1364                           	callstack 0
  1365                           
  1366 ;; *************** function _UART1_SetErrorHandler *****************
  1367 ;; Defined at:
  1368 ;;		line 208 in file "mcc_generated_files/uart1.c"
  1369 ;; Parameters:    Size  Location     Type
  1370 ;;  interruptHan    2    0[BANK1 ] PTR FTN()void 
  1371 ;;		 -> UART1_DefaultErrorHandler(1), 
  1372 ;; Auto vars:     Size  Location     Type
  1373 ;;		None
  1374 ;; Return value:  Size  Location     Type
  1375 ;;                  1    wreg      void 
  1376 ;; Registers used:
  1377 ;;		wreg, status,2, status,0
  1378 ;; Tracked objects:
  1379 ;;		On entry : 0/0
  1380 ;;		On exit  : 0/0
  1381 ;;		Unchanged: 0/0
  1382 ;; Data sizes:     COMRAM   BANK0   BANK1   BANK2   BANK3   BANK4   BANK5   BANK6   BANK7   BANK8   BANK9  BANK10  BANK1
      +1  BANK12  BANK13  BANK14  BANK15
  1383 ;;      Params:         0       0       2       0       0       0       0       0       0       0       0       0       
      +0       0       0       0       0
  1384 ;;      Locals:         0       0       0       0       0       0       0       0       0       0       0       0       
      +0       0       0       0       0
  1385 ;;      Temps:          0       0       0       0       0       0       0       0       0       0       0       0       
      +0       0       0       0       0
  1386 ;;      Totals:         0       0       2       0       0       0       0       0       0       0       0       0       
      +0       0       0       0       0
  1387 ;;Total ram usage:        2 bytes
  1388 ;; Hardware stack levels used: 1
  1389 ;; Hardware stack levels required when called: 7
  1390 ;; This function calls:
  1391 ;;		Nothing
  1392 ;; This function is called by:
  1393 ;;		_UART1_Initialize
  1394 ;; This function uses a non-reentrant model
  1395 ;;
  1396                           
  1397                           	psect	text5
  1398   002D22                     __ptext5:
  1399                           	callstack 0
  1400   002D22                     _UART1_SetErrorHandler:
  1401                           	callstack 21
  1402   002D22                     
  1403                           ;mcc_generated_files/uart1.c: 209:     UART1_ErrorHandler = interruptHandler;
  1404   002D22  C120  F0F1         	movff	UART1_SetErrorHandler@interruptHandler,_UART1_ErrorHandler
  1405   002D26  C121  F0F2         	movff	UART1_SetErrorHandler@interruptHandler+1,_UART1_ErrorHandler+1
  1406   002D2A  0012               	return		;funcret
  1407   002D2C                     __end_of_UART1_SetErrorHandler:
  1408                           	callstack 0
  1409                           
  1410 ;; *************** function _TMR6_Initialize *****************
  1411 ;; Defined at:
  1412 ;;		line 64 in file "mcc_generated_files/tmr6.c"
  1413 ;; Parameters:    Size  Location     Type
  1414 ;;		None
  1415 ;; Auto vars:     Size  Location     Type
  1416 ;;		None
  1417 ;; Return value:  Size  Location     Type
  1418 ;;                  1    wreg      void 
  1419 ;; Registers used:
  1420 ;;		wreg, status,2, status,0, cstack
  1421 ;; Tracked objects:
  1422 ;;		On entry : 0/0
  1423 ;;		On exit  : 0/0
  1424 ;;		Unchanged: 0/0
  1425 ;; Data sizes:     COMRAM   BANK0   BANK1   BANK2   BANK3   BANK4   BANK5   BANK6   BANK7   BANK8   BANK9  BANK10  BANK1
      +1  BANK12  BANK13  BANK14  BANK15
  1426 ;;      Params:         0       0       0       0       0       0       0       0       0       0       0       0       
      +0       0       0       0       0
  1427 ;;      Locals:         0       0       0       0       0       0       0       0       0       0       0       0       
      +0       0       0       0       0
  1428 ;;      Temps:          0       0       0       0       0       0       0       0       0       0       0       0       
      +0       0       0       0       0
  1429 ;;      Totals:         0       0       0       0       0       0       0       0       0       0       0       0       
      +0       0       0       0       0
  1430 ;;Total ram usage:        0 bytes
  1431 ;; Hardware stack levels used: 1
  1432 ;; Hardware stack levels required when called: 8
  1433 ;; This function calls:
  1434 ;;		_TMR6_SetInterruptHandler
  1435 ;; This function is called by:
  1436 ;;		_SYSTEM_Initialize
  1437 ;; This function uses a non-reentrant model
  1438 ;;
  1439                           
  1440                           	psect	text6
  1441   002BE0                     __ptext6:
  1442                           	callstack 0
  1443   002BE0                     _TMR6_Initialize:
  1444                           	callstack 21
  1445   002BE0                     
  1446                           ;mcc_generated_files/tmr6.c: 69:     T6CLKCON = 0x03;
  1447   002BE0  0E03               	movlw	3
  1448   002BE2  6E96               	movwf	150,c	;volatile
  1449                           
  1450                           ;mcc_generated_files/tmr6.c: 72:     T6HLT = 0x00;
  1451   002BE4  0E00               	movlw	0
  1452   002BE6  6E95               	movwf	149,c	;volatile
  1453                           
  1454                           ;mcc_generated_files/tmr6.c: 75:     T6RST = 0x00;
  1455   002BE8  0E00               	movlw	0
  1456   002BEA  6E97               	movwf	151,c	;volatile
  1457                           
  1458                           ;mcc_generated_files/tmr6.c: 78:     T6PR = 0xF9;
  1459   002BEC  0EF9               	movlw	249
  1460   002BEE  6E93               	movwf	147,c	;volatile
  1461                           
  1462                           ;mcc_generated_files/tmr6.c: 81:     T6TMR = 0x00;
  1463   002BF0  0E00               	movlw	0
  1464   002BF2  6E92               	movwf	146,c	;volatile
  1465   002BF4                     
  1466                           ;mcc_generated_files/tmr6.c: 84:     PIR9bits.TMR6IF = 0;
  1467   002BF4  0139               	movlb	57	; () banked
  1468   002BF6  91A9               	bcf	169,0,b	;volatile
  1469   002BF8                     
  1470                           ; BSR set to: 57
  1471                           ;mcc_generated_files/tmr6.c: 87:     PIE9bits.TMR6IE = 1;
  1472   002BF8  8199               	bsf	153,0,b	;volatile
  1473   002BFA                     
  1474                           ; BSR set to: 57
  1475                           ;mcc_generated_files/tmr6.c: 90:     TMR6_SetInterruptHandler(TMR6_DefaultInterruptHandl
      +                          er);
  1476   002BFA  0E50               	movlw	low _TMR6_DefaultInterruptHandler
  1477   002BFC  0101               	movlb	1	; () banked
  1478   002BFE  6F20               	movwf	TMR6_SetInterruptHandler@InterruptHandler& (0+255),b
  1479   002C00  0E2D               	movlw	high _TMR6_DefaultInterruptHandler
  1480   002C02  6F21               	movwf	(TMR6_SetInterruptHandler@InterruptHandler+1)& (0+255),b
  1481   002C04  EC96  F016         	call	_TMR6_SetInterruptHandler	;wreg free
  1482   002C08                     
  1483                           ;mcc_generated_files/tmr6.c: 93:     T6CON = 0xB0;
  1484   002C08  0EB0               	movlw	176
  1485   002C0A  6E94               	movwf	148,c	;volatile
  1486   002C0C  0012               	return		;funcret
  1487   002C0E                     __end_of_TMR6_Initialize:
  1488                           	callstack 0
  1489                           
  1490 ;; *************** function _TMR6_SetInterruptHandler *****************
  1491 ;; Defined at:
  1492 ;;		line 178 in file "mcc_generated_files/tmr6.c"
  1493 ;; Parameters:    Size  Location     Type
  1494 ;;  InterruptHan    2    0[BANK1 ] PTR FTN()void 
  1495 ;;		 -> TMR6_DefaultInterruptHandler(1), 
  1496 ;; Auto vars:     Size  Location     Type
  1497 ;;		None
  1498 ;; Return value:  Size  Location     Type
  1499 ;;                  1    wreg      void 
  1500 ;; Registers used:
  1501 ;;		wreg, status,2, status,0
  1502 ;; Tracked objects:
  1503 ;;		On entry : 0/0
  1504 ;;		On exit  : 0/0
  1505 ;;		Unchanged: 0/0
  1506 ;; Data sizes:     COMRAM   BANK0   BANK1   BANK2   BANK3   BANK4   BANK5   BANK6   BANK7   BANK8   BANK9  BANK10  BANK1
      +1  BANK12  BANK13  BANK14  BANK15
  1507 ;;      Params:         0       0       2       0       0       0       0       0       0       0       0       0       
      +0       0       0       0       0
  1508 ;;      Locals:         0       0       0       0       0       0       0       0       0       0       0       0       
      +0       0       0       0       0
  1509 ;;      Temps:          0       0       0       0       0       0       0       0       0       0       0       0       
      +0       0       0       0       0
  1510 ;;      Totals:         0       0       2       0       0       0       0       0       0       0       0       0       
      +0       0       0       0       0
  1511 ;;Total ram usage:        2 bytes
  1512 ;; Hardware stack levels used: 1
  1513 ;; Hardware stack levels required when called: 7
  1514 ;; This function calls:
  1515 ;;		Nothing
  1516 ;; This function is called by:
  1517 ;;		_TMR6_Initialize
  1518 ;; This function uses a non-reentrant model
  1519 ;;
  1520                           
  1521                           	psect	text7
  1522   002D2C                     __ptext7:
  1523                           	callstack 0
  1524   002D2C                     _TMR6_SetInterruptHandler:
  1525                           	callstack 21
  1526   002D2C                     
  1527                           ;mcc_generated_files/tmr6.c: 179:     TMR6_InterruptHandler = InterruptHandler;
  1528   002D2C  C120  F0EF         	movff	TMR6_SetInterruptHandler@InterruptHandler,_TMR6_InterruptHandler
  1529   002D30  C121  F0F0         	movff	TMR6_SetInterruptHandler@InterruptHandler+1,_TMR6_InterruptHandler+1
  1530   002D34  0012               	return		;funcret
  1531   002D36                     __end_of_TMR6_SetInterruptHandler:
  1532                           	callstack 0
  1533                           
  1534 ;; *************** function _TMR2_Initialize *****************
  1535 ;; Defined at:
  1536 ;;		line 62 in file "mcc_generated_files/tmr2.c"
  1537 ;; Parameters:    Size  Location     Type
  1538 ;;		None
  1539 ;; Auto vars:     Size  Location     Type
  1540 ;;		None
  1541 ;; Return value:  Size  Location     Type
  1542 ;;                  1    wreg      void 
  1543 ;; Registers used:
  1544 ;;		wreg, status,2
  1545 ;; Tracked objects:
  1546 ;;		On entry : 0/0
  1547 ;;		On exit  : 0/0
  1548 ;;		Unchanged: 0/0
  1549 ;; Data sizes:     COMRAM   BANK0   BANK1   BANK2   BANK3   BANK4   BANK5   BANK6   BANK7   BANK8   BANK9  BANK10  BANK1
      +1  BANK12  BANK13  BANK14  BANK15
  1550 ;;      Params:         0       0       0       0       0       0       0       0       0       0       0       0       
      +0       0       0       0       0
  1551 ;;      Locals:         0       0       0       0       0       0       0       0       0       0       0       0       
      +0       0       0       0       0
  1552 ;;      Temps:          0       0       0       0       0       0       0       0       0       0       0       0       
      +0       0       0       0       0
  1553 ;;      Totals:         0       0       0       0       0       0       0       0       0       0       0       0       
      +0       0       0       0       0
  1554 ;;Total ram usage:        0 bytes
  1555 ;; Hardware stack levels used: 1
  1556 ;; Hardware stack levels required when called: 7
  1557 ;; This function calls:
  1558 ;;		Nothing
  1559 ;; This function is called by:
  1560 ;;		_SYSTEM_Initialize
  1561 ;; This function uses a non-reentrant model
  1562 ;;
  1563                           
  1564                           	psect	text8
  1565   002C7E                     __ptext8:
  1566                           	callstack 0
  1567   002C7E                     _TMR2_Initialize:
  1568                           	callstack 22
  1569   002C7E                     
  1570                           ;mcc_generated_files/tmr2.c: 67:     T2CLKCON = 0x01;
  1571   002C7E  0E01               	movlw	1
  1572   002C80  6EAE               	movwf	174,c	;volatile
  1573                           
  1574                           ;mcc_generated_files/tmr2.c: 70:     T2HLT = 0x00;
  1575   002C82  0E00               	movlw	0
  1576   002C84  6EAD               	movwf	173,c	;volatile
  1577                           
  1578                           ;mcc_generated_files/tmr2.c: 73:     T2RST = 0x00;
  1579   002C86  0E00               	movlw	0
  1580   002C88  6EAF               	movwf	175,c	;volatile
  1581                           
  1582                           ;mcc_generated_files/tmr2.c: 76:     T2PR = 0x7C;
  1583   002C8A  0E7C               	movlw	124
  1584   002C8C  6EAB               	movwf	171,c	;volatile
  1585                           
  1586                           ;mcc_generated_files/tmr2.c: 79:     T2TMR = 0x00;
  1587   002C8E  0E00               	movlw	0
  1588   002C90  6EAA               	movwf	170,c	;volatile
  1589   002C92                     
  1590                           ;mcc_generated_files/tmr2.c: 82:     PIR4bits.TMR2IF = 0;
  1591   002C92  0139               	movlb	57	; () banked
  1592   002C94  95A4               	bcf	164,2,b	;volatile
  1593                           
  1594                           ;mcc_generated_files/tmr2.c: 85:     T2CON = 0xC0;
  1595   002C96  0EC0               	movlw	192
  1596   002C98  6EAC               	movwf	172,c	;volatile
  1597   002C9A                     
  1598                           ; BSR set to: 57
  1599   002C9A  0012               	return		;funcret
  1600   002C9C                     __end_of_TMR2_Initialize:
  1601                           	callstack 0
  1602                           
  1603 ;; *************** function _PWM5_Initialize *****************
  1604 ;; Defined at:
  1605 ;;		line 58 in file "mcc_generated_files/pwm5.c"
  1606 ;; Parameters:    Size  Location     Type
  1607 ;;		None
  1608 ;; Auto vars:     Size  Location     Type
  1609 ;;		None
  1610 ;; Return value:  Size  Location     Type
  1611 ;;                  1    wreg      void 
  1612 ;; Registers used:
  1613 ;;		wreg, status,2
  1614 ;; Tracked objects:
  1615 ;;		On entry : 0/0
  1616 ;;		On exit  : 0/0
  1617 ;;		Unchanged: 0/0
  1618 ;; Data sizes:     COMRAM   BANK0   BANK1   BANK2   BANK3   BANK4   BANK5   BANK6   BANK7   BANK8   BANK9  BANK10  BANK1
      +1  BANK12  BANK13  BANK14  BANK15
  1619 ;;      Params:         0       0       0       0       0       0       0       0       0       0       0       0       
      +0       0       0       0       0
  1620 ;;      Locals:         0       0       0       0       0       0       0       0       0       0       0       0       
      +0       0       0       0       0
  1621 ;;      Temps:          0       0       0       0       0       0       0       0       0       0       0       0       
      +0       0       0       0       0
  1622 ;;      Totals:         0       0       0       0       0       0       0       0       0       0       0       0       
      +0       0       0       0       0
  1623 ;;Total ram usage:        0 bytes
  1624 ;; Hardware stack levels used: 1
  1625 ;; Hardware stack levels required when called: 7
  1626 ;; This function calls:
  1627 ;;		Nothing
  1628 ;; This function is called by:
  1629 ;;		_SYSTEM_Initialize
  1630 ;; This function uses a non-reentrant model
  1631 ;;
  1632                           
  1633                           	psect	text9
  1634   002CD2                     __ptext9:
  1635                           	callstack 0
  1636   002CD2                     _PWM5_Initialize:
  1637                           	callstack 22
  1638   002CD2                     
  1639                           ;mcc_generated_files/pwm5.c: 62:     PWM5CON = 0x80;
  1640   002CD2  0E80               	movlw	128
  1641   002CD4  6E6E               	movwf	110,c	;volatile
  1642                           
  1643                           ;mcc_generated_files/pwm5.c: 65:     PWM5DCH = 0x3E;
  1644   002CD6  0E3E               	movlw	62
  1645   002CD8  6E6D               	movwf	109,c	;volatile
  1646                           
  1647                           ;mcc_generated_files/pwm5.c: 68:     PWM5DCL = 0x40;
  1648   002CDA  0E40               	movlw	64
  1649   002CDC  6E6C               	movwf	108,c	;volatile
  1650                           
  1651                           ;mcc_generated_files/pwm5.c: 71:     CCPTMRS1bits.P5TSEL = 1;
  1652   002CDE  013F               	movlb	63	; () banked
  1653   002CE0  515F               	movf	95,w,b	;volatile
  1654   002CE2  0BFC               	andlw	-4
  1655   002CE4  0901               	iorlw	1
  1656   002CE6  6F5F               	movwf	95,b	;volatile
  1657   002CE8                     
  1658                           ; BSR set to: 63
  1659   002CE8  0012               	return		;funcret
  1660   002CEA                     __end_of_PWM5_Initialize:
  1661                           	callstack 0
  1662                           
  1663 ;; *************** function _PMD_Initialize *****************
  1664 ;; Defined at:
  1665 ;;		line 80 in file "mcc_generated_files/mcc.c"
  1666 ;; Parameters:    Size  Location     Type
  1667 ;;		None
  1668 ;; Auto vars:     Size  Location     Type
  1669 ;;		None
  1670 ;; Return value:  Size  Location     Type
  1671 ;;                  1    wreg      void 
  1672 ;; Registers used:
  1673 ;;		wreg, status,2
  1674 ;; Tracked objects:
  1675 ;;		On entry : 0/0
  1676 ;;		On exit  : 0/0
  1677 ;;		Unchanged: 0/0
  1678 ;; Data sizes:     COMRAM   BANK0   BANK1   BANK2   BANK3   BANK4   BANK5   BANK6   BANK7   BANK8   BANK9  BANK10  BANK1
      +1  BANK12  BANK13  BANK14  BANK15
  1679 ;;      Params:         0       0       0       0       0       0       0       0       0       0       0       0       
      +0       0       0       0       0
  1680 ;;      Locals:         0       0       0       0       0       0       0       0       0       0       0       0       
      +0       0       0       0       0
  1681 ;;      Temps:          0       0       0       0       0       0       0       0       0       0       0       0       
      +0       0       0       0       0
  1682 ;;      Totals:         0       0       0       0       0       0       0       0       0       0       0       0       
      +0       0       0       0       0
  1683 ;;Total ram usage:        0 bytes
  1684 ;; Hardware stack levels used: 1
  1685 ;; Hardware stack levels required when called: 7
  1686 ;; This function calls:
  1687 ;;		Nothing
  1688 ;; This function is called by:
  1689 ;;		_SYSTEM_Initialize
  1690 ;; This function uses a non-reentrant model
  1691 ;;
  1692                           
  1693                           	psect	text10
  1694   002C38                     __ptext10:
  1695                           	callstack 0
  1696   002C38                     _PMD_Initialize:
  1697                           	callstack 22
  1698   002C38                     
  1699                           ;mcc_generated_files/mcc.c: 83:     PMD0 = 0x00;
  1700   002C38  0E00               	movlw	0
  1701   002C3A  0139               	movlb	57	; () banked
  1702   002C3C  6FC0               	movwf	192,b	;volatile
  1703                           
  1704                           ;mcc_generated_files/mcc.c: 85:     PMD1 = 0x00;
  1705   002C3E  0E00               	movlw	0
  1706   002C40  6FC1               	movwf	193,b	;volatile
  1707                           
  1708                           ;mcc_generated_files/mcc.c: 87:     PMD2 = 0x00;
  1709   002C42  0E00               	movlw	0
  1710   002C44  6FC2               	movwf	194,b	;volatile
  1711                           
  1712                           ;mcc_generated_files/mcc.c: 89:     PMD3 = 0x00;
  1713   002C46  0E00               	movlw	0
  1714   002C48  6FC3               	movwf	195,b	;volatile
  1715                           
  1716                           ;mcc_generated_files/mcc.c: 91:     PMD4 = 0x00;
  1717   002C4A  0E00               	movlw	0
  1718   002C4C  6FC4               	movwf	196,b	;volatile
  1719                           
  1720                           ;mcc_generated_files/mcc.c: 93:     PMD5 = 0x00;
  1721   002C4E  0E00               	movlw	0
  1722   002C50  6FC5               	movwf	197,b	;volatile
  1723                           
  1724                           ;mcc_generated_files/mcc.c: 95:     PMD6 = 0x00;
  1725   002C52  0E00               	movlw	0
  1726   002C54  6FC6               	movwf	198,b	;volatile
  1727                           
  1728                           ;mcc_generated_files/mcc.c: 97:     PMD7 = 0x00;
  1729   002C56  0E00               	movlw	0
  1730   002C58  6FC7               	movwf	199,b	;volatile
  1731   002C5A                     
  1732                           ; BSR set to: 57
  1733   002C5A  0012               	return		;funcret
  1734   002C5C                     __end_of_PMD_Initialize:
  1735                           	callstack 0
  1736                           
  1737 ;; *************** function _PIN_MANAGER_Initialize *****************
  1738 ;; Defined at:
  1739 ;;		line 55 in file "mcc_generated_files/pin_manager.c"
  1740 ;; Parameters:    Size  Location     Type
  1741 ;;		None
  1742 ;; Auto vars:     Size  Location     Type
  1743 ;;		None
  1744 ;; Return value:  Size  Location     Type
  1745 ;;                  1    wreg      void 
  1746 ;; Registers used:
  1747 ;;		wreg, status,2
  1748 ;; Tracked objects:
  1749 ;;		On entry : 0/0
  1750 ;;		On exit  : 0/0
  1751 ;;		Unchanged: 0/0
  1752 ;; Data sizes:     COMRAM   BANK0   BANK1   BANK2   BANK3   BANK4   BANK5   BANK6   BANK7   BANK8   BANK9  BANK10  BANK1
      +1  BANK12  BANK13  BANK14  BANK15
  1753 ;;      Params:         0       0       0       0       0       0       0       0       0       0       0       0       
      +0       0       0       0       0
  1754 ;;      Locals:         0       0       0       0       0       0       0       0       0       0       0       0       
      +0       0       0       0       0
  1755 ;;      Temps:          0       0       0       0       0       0       0       0       0       0       0       0       
      +0       0       0       0       0
  1756 ;;      Totals:         0       0       0       0       0       0       0       0       0       0       0       0       
      +0       0       0       0       0
  1757 ;;Total ram usage:        0 bytes
  1758 ;; Hardware stack levels used: 1
  1759 ;; Hardware stack levels required when called: 7
  1760 ;; This function calls:
  1761 ;;		Nothing
  1762 ;; This function is called by:
  1763 ;;		_SYSTEM_Initialize
  1764 ;; This function uses a non-reentrant model
  1765 ;;
  1766                           
  1767                           	psect	text11
  1768   00279E                     __ptext11:
  1769                           	callstack 0
  1770   00279E                     _PIN_MANAGER_Initialize:
  1771                           	callstack 22
  1772   00279E                     
  1773                           ;mcc_generated_files/pin_manager.c: 60:     LATE = 0x00;
  1774   00279E  0E00               	movlw	0
  1775   0027A0  6EBE               	movwf	190,c	;volatile
  1776                           
  1777                           ;mcc_generated_files/pin_manager.c: 61:     LATD = 0x00;
  1778   0027A2  0E00               	movlw	0
  1779   0027A4  6EBD               	movwf	189,c	;volatile
  1780                           
  1781                           ;mcc_generated_files/pin_manager.c: 62:     LATA = 0x00;
  1782   0027A6  0E00               	movlw	0
  1783   0027A8  6EBA               	movwf	186,c	;volatile
  1784                           
  1785                           ;mcc_generated_files/pin_manager.c: 63:     LATB = 0x00;
  1786   0027AA  0E00               	movlw	0
  1787   0027AC  6EBB               	movwf	187,c	;volatile
  1788                           
  1789                           ;mcc_generated_files/pin_manager.c: 64:     LATC = 0x00;
  1790   0027AE  0E00               	movlw	0
  1791   0027B0  6EBC               	movwf	188,c	;volatile
  1792                           
  1793                           ;mcc_generated_files/pin_manager.c: 69:     TRISE = 0x07;
  1794   0027B2  0E07               	movlw	7
  1795   0027B4  6EC6               	movwf	198,c	;volatile
  1796   0027B6                     
  1797                           ;mcc_generated_files/pin_manager.c: 70:     TRISA = 0xFF;
  1798   0027B6  68C2               	setf	194,c	;volatile
  1799                           
  1800                           ;mcc_generated_files/pin_manager.c: 71:     TRISB = 0xE1;
  1801   0027B8  0EE1               	movlw	225
  1802   0027BA  6EC3               	movwf	195,c	;volatile
  1803                           
  1804                           ;mcc_generated_files/pin_manager.c: 72:     TRISC = 0xBB;
  1805   0027BC  0EBB               	movlw	187
  1806   0027BE  6EC4               	movwf	196,c	;volatile
  1807   0027C0                     
  1808                           ;mcc_generated_files/pin_manager.c: 73:     TRISD = 0xFF;
  1809   0027C0  68C5               	setf	197,c	;volatile
  1810   0027C2                     
  1811                           ;mcc_generated_files/pin_manager.c: 78:     ANSELD = 0xFF;
  1812   0027C2  013A               	movlb	58	; () banked
  1813   0027C4  6970               	setf	112,b	;volatile
  1814                           
  1815                           ;mcc_generated_files/pin_manager.c: 79:     ANSELC = 0x7F;
  1816   0027C6  0E7F               	movlw	127
  1817   0027C8  6F60               	movwf	96,b	;volatile
  1818                           
  1819                           ;mcc_generated_files/pin_manager.c: 80:     ANSELB = 0xF9;
  1820   0027CA  0EF9               	movlw	249
  1821   0027CC  6F50               	movwf	80,b	;volatile
  1822                           
  1823                           ;mcc_generated_files/pin_manager.c: 81:     ANSELE = 0x07;
  1824   0027CE  0E07               	movlw	7
  1825   0027D0  6F80               	movwf	128,b	;volatile
  1826   0027D2                     
  1827                           ; BSR set to: 58
  1828                           ;mcc_generated_files/pin_manager.c: 82:     ANSELA = 0xFF;
  1829   0027D2  6940               	setf	64,b	;volatile
  1830                           
  1831                           ;mcc_generated_files/pin_manager.c: 87:     WPUD = 0x00;
  1832   0027D4  0E00               	movlw	0
  1833   0027D6  6F71               	movwf	113,b	;volatile
  1834                           
  1835                           ;mcc_generated_files/pin_manager.c: 88:     WPUE = 0x00;
  1836   0027D8  0E00               	movlw	0
  1837   0027DA  6F81               	movwf	129,b	;volatile
  1838                           
  1839                           ;mcc_generated_files/pin_manager.c: 89:     WPUB = 0x00;
  1840   0027DC  0E00               	movlw	0
  1841   0027DE  6F51               	movwf	81,b	;volatile
  1842                           
  1843                           ;mcc_generated_files/pin_manager.c: 90:     WPUA = 0x00;
  1844   0027E0  0E00               	movlw	0
  1845   0027E2  6F41               	movwf	65,b	;volatile
  1846                           
  1847                           ;mcc_generated_files/pin_manager.c: 91:     WPUC = 0x00;
  1848   0027E4  0E00               	movlw	0
  1849   0027E6  6F61               	movwf	97,b	;volatile
  1850                           
  1851                           ;mcc_generated_files/pin_manager.c: 96:     RB1I2C = 0x00;
  1852   0027E8  0E00               	movlw	0
  1853   0027EA  6F5A               	movwf	90,b	;volatile
  1854                           
  1855                           ;mcc_generated_files/pin_manager.c: 97:     RB2I2C = 0x00;
  1856   0027EC  0E00               	movlw	0
  1857   0027EE  6F5B               	movwf	91,b	;volatile
  1858                           
  1859                           ;mcc_generated_files/pin_manager.c: 98:     RC3I2C = 0x00;
  1860   0027F0  0E00               	movlw	0
  1861   0027F2  6F6A               	movwf	106,b	;volatile
  1862                           
  1863                           ;mcc_generated_files/pin_manager.c: 99:     RC4I2C = 0x00;
  1864   0027F4  0E00               	movlw	0
  1865   0027F6  6F6B               	movwf	107,b	;volatile
  1866                           
  1867                           ;mcc_generated_files/pin_manager.c: 100:     RD0I2C = 0x00;
  1868   0027F8  0E00               	movlw	0
  1869   0027FA  6F7A               	movwf	122,b	;volatile
  1870                           
  1871                           ;mcc_generated_files/pin_manager.c: 101:     RD1I2C = 0x00;
  1872   0027FC  0E00               	movlw	0
  1873   0027FE  6F7B               	movwf	123,b	;volatile
  1874                           
  1875                           ;mcc_generated_files/pin_manager.c: 106:     ODCONE = 0x00;
  1876   002800  0E00               	movlw	0
  1877   002802  6F82               	movwf	130,b	;volatile
  1878                           
  1879                           ;mcc_generated_files/pin_manager.c: 107:     ODCONA = 0x00;
  1880   002804  0E00               	movlw	0
  1881   002806  6F42               	movwf	66,b	;volatile
  1882                           
  1883                           ;mcc_generated_files/pin_manager.c: 108:     ODCONB = 0x06;
  1884   002808  0E06               	movlw	6
  1885   00280A  6F52               	movwf	82,b	;volatile
  1886                           
  1887                           ;mcc_generated_files/pin_manager.c: 109:     ODCONC = 0x18;
  1888   00280C  0E18               	movlw	24
  1889   00280E  6F62               	movwf	98,b	;volatile
  1890                           
  1891                           ;mcc_generated_files/pin_manager.c: 110:     ODCOND = 0x00;
  1892   002810  0E00               	movlw	0
  1893   002812  6F72               	movwf	114,b	;volatile
  1894   002814                     
  1895                           ; BSR set to: 58
  1896                           ;mcc_generated_files/pin_manager.c: 115:     SLRCONA = 0xFF;
  1897   002814  6943               	setf	67,b	;volatile
  1898   002816                     
  1899                           ; BSR set to: 58
  1900                           ;mcc_generated_files/pin_manager.c: 116:     SLRCONB = 0xFF;
  1901   002816  6953               	setf	83,b	;volatile
  1902   002818                     
  1903                           ; BSR set to: 58
  1904                           ;mcc_generated_files/pin_manager.c: 117:     SLRCONC = 0xFF;
  1905   002818  6963               	setf	99,b	;volatile
  1906   00281A                     
  1907                           ; BSR set to: 58
  1908                           ;mcc_generated_files/pin_manager.c: 118:     SLRCOND = 0xFF;
  1909   00281A  6973               	setf	115,b	;volatile
  1910                           
  1911                           ;mcc_generated_files/pin_manager.c: 119:     SLRCONE = 0x07;
  1912   00281C  0E07               	movlw	7
  1913   00281E  6F83               	movwf	131,b	;volatile
  1914   002820                     
  1915                           ; BSR set to: 58
  1916                           ;mcc_generated_files/pin_manager.c: 124:     INLVLA = 0xFF;
  1917   002820  6944               	setf	68,b	;volatile
  1918   002822                     
  1919                           ; BSR set to: 58
  1920                           ;mcc_generated_files/pin_manager.c: 125:     INLVLB = 0xFF;
  1921   002822  6954               	setf	84,b	;volatile
  1922   002824                     
  1923                           ; BSR set to: 58
  1924                           ;mcc_generated_files/pin_manager.c: 126:     INLVLC = 0xFF;
  1925   002824  6964               	setf	100,b	;volatile
  1926   002826                     
  1927                           ; BSR set to: 58
  1928                           ;mcc_generated_files/pin_manager.c: 127:     INLVLD = 0xFF;
  1929   002826  6974               	setf	116,b	;volatile
  1930                           
  1931                           ;mcc_generated_files/pin_manager.c: 128:     INLVLE = 0x0F;
  1932   002828  0E0F               	movlw	15
  1933   00282A  6F84               	movwf	132,b	;volatile
  1934                           
  1935                           ;mcc_generated_files/pin_manager.c: 137:     I2C1SDAPPS = 0x0A;
  1936   00282C  0E0A               	movlw	10
  1937   00282E  6FE2               	movwf	226,b	;volatile
  1938                           
  1939                           ;mcc_generated_files/pin_manager.c: 138:     RB1PPS = 0x21;
  1940   002830  0E21               	movlw	33
  1941   002832  6F09               	movwf	9,b	;volatile
  1942                           
  1943                           ;mcc_generated_files/pin_manager.c: 139:     RB2PPS = 0x22;
  1944   002834  0E22               	movlw	34
  1945   002836  6F0A               	movwf	10,b	;volatile
  1946                           
  1947                           ;mcc_generated_files/pin_manager.c: 140:     RC2PPS = 0x0D;
  1948   002838  0E0D               	movlw	13
  1949   00283A  6F12               	movwf	18,b	;volatile
  1950                           
  1951                           ;mcc_generated_files/pin_manager.c: 141:     RC6PPS = 0x13;
  1952   00283C  0E13               	movlw	19
  1953   00283E  6F16               	movwf	22,b	;volatile
  1954                           
  1955                           ;mcc_generated_files/pin_manager.c: 142:     U1RXPPS = 0x17;
  1956   002840  0E17               	movlw	23
  1957   002842  6FE5               	movwf	229,b	;volatile
  1958                           
  1959                           ;mcc_generated_files/pin_manager.c: 143:     I2C1SCLPPS = 0x09;
  1960   002844  0E09               	movlw	9
  1961   002846  6FE1               	movwf	225,b	;volatile
  1962   002848                     
  1963                           ; BSR set to: 58
  1964   002848  0012               	return		;funcret
  1965   00284A                     __end_of_PIN_MANAGER_Initialize:
  1966                           	callstack 0
  1967                           
  1968 ;; *************** function _OSCILLATOR_Initialize *****************
  1969 ;; Defined at:
  1970 ;;		line 66 in file "mcc_generated_files/mcc.c"
  1971 ;; Parameters:    Size  Location     Type
  1972 ;;		None
  1973 ;; Auto vars:     Size  Location     Type
  1974 ;;		None
  1975 ;; Return value:  Size  Location     Type
  1976 ;;                  1    wreg      void 
  1977 ;; Registers used:
  1978 ;;		wreg, status,2
  1979 ;; Tracked objects:
  1980 ;;		On entry : 0/0
  1981 ;;		On exit  : 0/0
  1982 ;;		Unchanged: 0/0
  1983 ;; Data sizes:     COMRAM   BANK0   BANK1   BANK2   BANK3   BANK4   BANK5   BANK6   BANK7   BANK8   BANK9  BANK10  BANK1
      +1  BANK12  BANK13  BANK14  BANK15
  1984 ;;      Params:         0       0       0       0       0       0       0       0       0       0       0       0       
      +0       0       0       0       0
  1985 ;;      Locals:         0       0       0       0       0       0       0       0       0       0       0       0       
      +0       0       0       0       0
  1986 ;;      Temps:          0       0       0       0       0       0       0       0       0       0       0       0       
      +0       0       0       0       0
  1987 ;;      Totals:         0       0       0       0       0       0       0       0       0       0       0       0       
      +0       0       0       0       0
  1988 ;;Total ram usage:        0 bytes
  1989 ;; Hardware stack levels used: 1
  1990 ;; Hardware stack levels required when called: 7
  1991 ;; This function calls:
  1992 ;;		Nothing
  1993 ;; This function is called by:
  1994 ;;		_SYSTEM_Initialize
  1995 ;; This function uses a non-reentrant model
  1996 ;;
  1997                           
  1998                           	psect	text12
  1999   002CEA                     __ptext12:
  2000                           	callstack 0
  2001   002CEA                     _OSCILLATOR_Initialize:
  2002                           	callstack 22
  2003   002CEA                     
  2004                           ;mcc_generated_files/mcc.c: 69:     OSCCON1 = 0x60;
  2005   002CEA  0E60               	movlw	96
  2006   002CEC  0139               	movlb	57	; () banked
  2007   002CEE  6FD9               	movwf	217,b	;volatile
  2008                           
  2009                           ;mcc_generated_files/mcc.c: 71:     OSCCON3 = 0x00;
  2010   002CF0  0E00               	movlw	0
  2011   002CF2  6FDB               	movwf	219,b	;volatile
  2012                           
  2013                           ;mcc_generated_files/mcc.c: 73:     OSCEN = 0x00;
  2014   002CF4  0E00               	movlw	0
  2015   002CF6  6FDD               	movwf	221,b	;volatile
  2016                           
  2017                           ;mcc_generated_files/mcc.c: 75:     OSCFRQ = 0x08;
  2018   002CF8  0E08               	movlw	8
  2019   002CFA  6FDF               	movwf	223,b	;volatile
  2020                           
  2021                           ;mcc_generated_files/mcc.c: 77:     OSCTUNE = 0x00;
  2022   002CFC  0E00               	movlw	0
  2023   002CFE  6FDE               	movwf	222,b	;volatile
  2024   002D00                     
  2025                           ; BSR set to: 57
  2026   002D00  0012               	return		;funcret
  2027   002D02                     __end_of_OSCILLATOR_Initialize:
  2028                           	callstack 0
  2029                           
  2030 ;; *************** function _INTERRUPT_Initialize *****************
  2031 ;; Defined at:
  2032 ;;		line 84 in file "mcc_generated_files/interrupt_manager.c"
  2033 ;; Parameters:    Size  Location     Type
  2034 ;;		None
  2035 ;; Auto vars:     Size  Location     Type
  2036 ;;		None
  2037 ;; Return value:  Size  Location     Type
  2038 ;;                  1    wreg      void 
  2039 ;; Registers used:
  2040 ;;		None
  2041 ;; Tracked objects:
  2042 ;;		On entry : 0/0
  2043 ;;		On exit  : 0/0
  2044 ;;		Unchanged: 0/0
  2045 ;; Data sizes:     COMRAM   BANK0   BANK1   BANK2   BANK3   BANK4   BANK5   BANK6   BANK7   BANK8   BANK9  BANK10  BANK1
      +1  BANK12  BANK13  BANK14  BANK15
  2046 ;;      Params:         0       0       0       0       0       0       0       0       0       0       0       0       
      +0       0       0       0       0
  2047 ;;      Locals:         0       0       0       0       0       0       0       0       0       0       0       0       
      +0       0       0       0       0
  2048 ;;      Temps:          0       0       0       0       0       0       0       0       0       0       0       0       
      +0       0       0       0       0
  2049 ;;      Totals:         0       0       0       0       0       0       0       0       0       0       0       0       
      +0       0       0       0       0
  2050 ;;Total ram usage:        0 bytes
  2051 ;; Hardware stack levels used: 1
  2052 ;; Hardware stack levels required when called: 7
  2053 ;; This function calls:
  2054 ;;		Nothing
  2055 ;; This function is called by:
  2056 ;;		_SYSTEM_Initialize
  2057 ;; This function uses a non-reentrant model
  2058 ;;
  2059                           
  2060                           	psect	text13
  2061   002D4C                     __ptext13:
  2062                           	callstack 0
  2063   002D4C                     _INTERRUPT_Initialize:
  2064                           	callstack 22
  2065   002D4C                     
  2066                           ;mcc_generated_files/interrupt_manager.c: 87:     INTCON0bits.IPEN = 0;
  2067   002D4C  9AD2               	bcf	210,5,c	;volatile
  2068   002D4E  0012               	return		;funcret
  2069   002D50                     __end_of_INTERRUPT_Initialize:
  2070                           	callstack 0
  2071                           
  2072 ;; *************** function _I2C1_Initialize *****************
  2073 ;; Defined at:
  2074 ;;		line 183 in file "mcc_generated_files/i2c1_master.c"
  2075 ;; Parameters:    Size  Location     Type
  2076 ;;		None
  2077 ;; Auto vars:     Size  Location     Type
  2078 ;;		None
  2079 ;; Return value:  Size  Location     Type
  2080 ;;                  1    wreg      void 
  2081 ;; Registers used:
  2082 ;;		wreg, status,2
  2083 ;; Tracked objects:
  2084 ;;		On entry : 0/0
  2085 ;;		On exit  : 0/0
  2086 ;;		Unchanged: 0/0
  2087 ;; Data sizes:     COMRAM   BANK0   BANK1   BANK2   BANK3   BANK4   BANK5   BANK6   BANK7   BANK8   BANK9  BANK10  BANK1
      +1  BANK12  BANK13  BANK14  BANK15
  2088 ;;      Params:         0       0       0       0       0       0       0       0       0       0       0       0       
      +0       0       0       0       0
  2089 ;;      Locals:         0       0       0       0       0       0       0       0       0       0       0       0       
      +0       0       0       0       0
  2090 ;;      Temps:          0       0       0       0       0       0       0       0       0       0       0       0       
      +0       0       0       0       0
  2091 ;;      Totals:         0       0       0       0       0       0       0       0       0       0       0       0       
      +0       0       0       0       0
  2092 ;;Total ram usage:        0 bytes
  2093 ;; Hardware stack levels used: 1
  2094 ;; Hardware stack levels required when called: 7
  2095 ;; This function calls:
  2096 ;;		Nothing
  2097 ;; This function is called by:
  2098 ;;		_SYSTEM_Initialize
  2099 ;; This function uses a non-reentrant model
  2100 ;;
  2101                           
  2102                           	psect	text14
  2103   002C5C                     __ptext14:
  2104                           	callstack 0
  2105   002C5C                     _I2C1_Initialize:
  2106                           	callstack 22
  2107   002C5C                     
  2108                           ;mcc_generated_files/i2c1_master.c: 186:     I2C1CON0 = 0x04;
  2109   002C5C  0E04               	movlw	4
  2110   002C5E  013D               	movlb	61	; () banked
  2111   002C60  6F73               	movwf	115,b	;volatile
  2112                           
  2113                           ;mcc_generated_files/i2c1_master.c: 188:     I2C1CON1 = 0x80;
  2114   002C62  0E80               	movlw	128
  2115   002C64  6F74               	movwf	116,b	;volatile
  2116                           
  2117                           ;mcc_generated_files/i2c1_master.c: 190:     I2C1CON2 = 0x18;
  2118   002C66  0E18               	movlw	24
  2119   002C68  6F75               	movwf	117,b	;volatile
  2120                           
  2121                           ;mcc_generated_files/i2c1_master.c: 192:     I2C1CLK = 0x03;
  2122   002C6A  0E03               	movlw	3
  2123   002C6C  6F7B               	movwf	123,b	;volatile
  2124                           
  2125                           ;mcc_generated_files/i2c1_master.c: 194:     I2C1PIR = 0x00;
  2126   002C6E  0E00               	movlw	0
  2127   002C70  6F79               	movwf	121,b	;volatile
  2128                           
  2129                           ;mcc_generated_files/i2c1_master.c: 196:     I2C1PIE = 0x00;
  2130   002C72  0E00               	movlw	0
  2131   002C74  6F7A               	movwf	122,b	;volatile
  2132                           
  2133                           ;mcc_generated_files/i2c1_master.c: 198:     I2C1ERR = 0x00;
  2134   002C76  0E00               	movlw	0
  2135   002C78  6F76               	movwf	118,b	;volatile
  2136   002C7A                     
  2137                           ; BSR set to: 61
  2138                           ;mcc_generated_files/i2c1_master.c: 200:     I2C1CNT = 0xFF;
  2139   002C7A  696C               	setf	108,b	;volatile
  2140   002C7C                     
  2141                           ; BSR set to: 61
  2142   002C7C  0012               	return		;funcret
  2143   002C7E                     __end_of_I2C1_Initialize:
  2144                           	callstack 0
  2145                           
  2146 ;; *************** function _FVR_Initialize *****************
  2147 ;; Defined at:
  2148 ;;		line 58 in file "mcc_generated_files/fvr.c"
  2149 ;; Parameters:    Size  Location     Type
  2150 ;;		None
  2151 ;; Auto vars:     Size  Location     Type
  2152 ;;		None
  2153 ;; Return value:  Size  Location     Type
  2154 ;;                  1    wreg      void 
  2155 ;; Registers used:
  2156 ;;		wreg, status,2
  2157 ;; Tracked objects:
  2158 ;;		On entry : 0/0
  2159 ;;		On exit  : 0/0
  2160 ;;		Unchanged: 0/0
  2161 ;; Data sizes:     COMRAM   BANK0   BANK1   BANK2   BANK3   BANK4   BANK5   BANK6   BANK7   BANK8   BANK9  BANK10  BANK1
      +1  BANK12  BANK13  BANK14  BANK15
  2162 ;;      Params:         0       0       0       0       0       0       0       0       0       0       0       0       
      +0       0       0       0       0
  2163 ;;      Locals:         0       0       0       0       0       0       0       0       0       0       0       0       
      +0       0       0       0       0
  2164 ;;      Temps:          0       0       0       0       0       0       0       0       0       0       0       0       
      +0       0       0       0       0
  2165 ;;      Totals:         0       0       0       0       0       0       0       0       0       0       0       0       
      +0       0       0       0       0
  2166 ;;Total ram usage:        0 bytes
  2167 ;; Hardware stack levels used: 1
  2168 ;; Hardware stack levels required when called: 7
  2169 ;; This function calls:
  2170 ;;		Nothing
  2171 ;; This function is called by:
  2172 ;;		_SYSTEM_Initialize
  2173 ;; This function uses a non-reentrant model
  2174 ;;
  2175                           
  2176                           	psect	text15
  2177   002D40                     __ptext15:
  2178                           	callstack 0
  2179   002D40                     _FVR_Initialize:
  2180                           	callstack 22
  2181   002D40                     
  2182                           ;mcc_generated_files/fvr.c: 61:     FVRCON = 0x8A;
  2183   002D40  0E8A               	movlw	138
  2184   002D42  013E               	movlb	62	; () banked
  2185   002D44  6FC1               	movwf	193,b	;volatile
  2186   002D46                     
  2187                           ; BSR set to: 62
  2188   002D46  0012               	return		;funcret
  2189   002D48                     __end_of_FVR_Initialize:
  2190                           	callstack 0
  2191                           
  2192 ;; *************** function _DAC1_Initialize *****************
  2193 ;; Defined at:
  2194 ;;		line 58 in file "mcc_generated_files/dac1.c"
  2195 ;; Parameters:    Size  Location     Type
  2196 ;;		None
  2197 ;; Auto vars:     Size  Location     Type
  2198 ;;		None
  2199 ;; Return value:  Size  Location     Type
  2200 ;;                  1    wreg      void 
  2201 ;; Registers used:
  2202 ;;		wreg, status,2
  2203 ;; Tracked objects:
  2204 ;;		On entry : 0/0
  2205 ;;		On exit  : 0/0
  2206 ;;		Unchanged: 0/0
  2207 ;; Data sizes:     COMRAM   BANK0   BANK1   BANK2   BANK3   BANK4   BANK5   BANK6   BANK7   BANK8   BANK9  BANK10  BANK1
      +1  BANK12  BANK13  BANK14  BANK15
  2208 ;;      Params:         0       0       0       0       0       0       0       0       0       0       0       0       
      +0       0       0       0       0
  2209 ;;      Locals:         0       0       0       0       0       0       0       0       0       0       0       0       
      +0       0       0       0       0
  2210 ;;      Temps:          0       0       0       0       0       0       0       0       0       0       0       0       
      +0       0       0       0       0
  2211 ;;      Totals:         0       0       0       0       0       0       0       0       0       0       0       0       
      +0       0       0       0       0
  2212 ;;Total ram usage:        0 bytes
  2213 ;; Hardware stack levels used: 1
  2214 ;; Hardware stack levels required when called: 7
  2215 ;; This function calls:
  2216 ;;		Nothing
  2217 ;; This function is called by:
  2218 ;;		_SYSTEM_Initialize
  2219 ;; This function uses a non-reentrant model
  2220 ;;
  2221                           
  2222                           	psect	text16
  2223   002D02                     __ptext16:
  2224                           	callstack 0
  2225   002D02                     _DAC1_Initialize:
  2226                           	callstack 22
  2227   002D02                     
  2228                           ;mcc_generated_files/dac1.c: 61:     DAC1CON0 = 0x88;
  2229   002D02  0E88               	movlw	136
  2230   002D04  013E               	movlb	62	; () banked
  2231   002D06  6F9E               	movwf	158,b	;volatile
  2232                           
  2233                           ;mcc_generated_files/dac1.c: 63:     DAC1CON1 = 0x10;
  2234   002D08  0E10               	movlw	16
  2235   002D0A  6F9C               	movwf	156,b	;volatile
  2236   002D0C                     
  2237                           ; BSR set to: 62
  2238   002D0C  0012               	return		;funcret
  2239   002D0E                     __end_of_DAC1_Initialize:
  2240                           	callstack 0
  2241                           
  2242 ;; *************** function _ADCC_Initialize *****************
  2243 ;; Defined at:
  2244 ;;		line 62 in file "mcc_generated_files/adcc.c"
  2245 ;; Parameters:    Size  Location     Type
  2246 ;;		None
  2247 ;; Auto vars:     Size  Location     Type
  2248 ;;		None
  2249 ;; Return value:  Size  Location     Type
  2250 ;;                  1    wreg      void 
  2251 ;; Registers used:
  2252 ;;		wreg, status,2
  2253 ;; Tracked objects:
  2254 ;;		On entry : 0/0
  2255 ;;		On exit  : 0/0
  2256 ;;		Unchanged: 0/0
  2257 ;; Data sizes:     COMRAM   BANK0   BANK1   BANK2   BANK3   BANK4   BANK5   BANK6   BANK7   BANK8   BANK9  BANK10  BANK1
      +1  BANK12  BANK13  BANK14  BANK15
  2258 ;;      Params:         0       0       0       0       0       0       0       0       0       0       0       0       
      +0       0       0       0       0
  2259 ;;      Locals:         0       0       0       0       0       0       0       0       0       0       0       0       
      +0       0       0       0       0
  2260 ;;      Temps:          0       0       0       0       0       0       0       0       0       0       0       0       
      +0       0       0       0       0
  2261 ;;      Totals:         0       0       0       0       0       0       0       0       0       0       0       0       
      +0       0       0       0       0
  2262 ;;Total ram usage:        0 bytes
  2263 ;; Hardware stack levels used: 1
  2264 ;; Hardware stack levels required when called: 7
  2265 ;; This function calls:
  2266 ;;		Nothing
  2267 ;; This function is called by:
  2268 ;;		_SYSTEM_Initialize
  2269 ;; This function uses a non-reentrant model
  2270 ;;
  2271                           
  2272                           	psect	text17
  2273   0029C8                     __ptext17:
  2274                           	callstack 0
  2275   0029C8                     _ADCC_Initialize:
  2276                           	callstack 22
  2277   0029C8                     
  2278                           ;mcc_generated_files/adcc.c: 66:     ADLTHL = 0x00;
  2279   0029C8  0E00               	movlw	0
  2280   0029CA  013E               	movlb	62	; () banked
  2281   0029CC  6FDE               	movwf	222,b	;volatile
  2282                           
  2283                           ;mcc_generated_files/adcc.c: 68:     ADLTHH = 0x00;
  2284   0029CE  0E00               	movlw	0
  2285   0029D0  6FDF               	movwf	223,b	;volatile
  2286                           
  2287                           ;mcc_generated_files/adcc.c: 70:     ADUTHL = 0x00;
  2288   0029D2  0E00               	movlw	0
  2289   0029D4  6FE0               	movwf	224,b	;volatile
  2290                           
  2291                           ;mcc_generated_files/adcc.c: 72:     ADUTHH = 0x00;
  2292   0029D6  0E00               	movlw	0
  2293   0029D8  6FE1               	movwf	225,b	;volatile
  2294                           
  2295                           ;mcc_generated_files/adcc.c: 74:     ADSTPTL = 0x00;
  2296   0029DA  0E00               	movlw	0
  2297   0029DC  6FE4               	movwf	228,b	;volatile
  2298                           
  2299                           ;mcc_generated_files/adcc.c: 76:     ADSTPTH = 0x00;
  2300   0029DE  0E00               	movlw	0
  2301   0029E0  6FE5               	movwf	229,b	;volatile
  2302                           
  2303                           ;mcc_generated_files/adcc.c: 78:     ADACCU = 0x00;
  2304   0029E2  0E00               	movlw	0
  2305   0029E4  6FEA               	movwf	234,b	;volatile
  2306                           
  2307                           ;mcc_generated_files/adcc.c: 80:     ADRPT = 0x00;
  2308   0029E6  0E00               	movlw	0
  2309   0029E8  6FEC               	movwf	236,b	;volatile
  2310                           
  2311                           ;mcc_generated_files/adcc.c: 82:     ADPCH = 0x00;
  2312   0029EA  0E00               	movlw	0
  2313   0029EC  6FF1               	movwf	241,b	;volatile
  2314                           
  2315                           ;mcc_generated_files/adcc.c: 84:     ADACQL = 0x00;
  2316   0029EE  0E00               	movlw	0
  2317   0029F0  6FF3               	movwf	243,b	;volatile
  2318                           
  2319                           ;mcc_generated_files/adcc.c: 86:     ADACQH = 0x00;
  2320   0029F2  0E00               	movlw	0
  2321   0029F4  6FF4               	movwf	244,b	;volatile
  2322                           
  2323                           ;mcc_generated_files/adcc.c: 88:     ADCAP = 0x00;
  2324   0029F6  0E00               	movlw	0
  2325   0029F8  6FF5               	movwf	245,b	;volatile
  2326                           
  2327                           ;mcc_generated_files/adcc.c: 90:     ADPREL = 0x00;
  2328   0029FA  0E00               	movlw	0
  2329   0029FC  6FF6               	movwf	246,b	;volatile
  2330                           
  2331                           ;mcc_generated_files/adcc.c: 92:     ADPREH = 0x00;
  2332   0029FE  0E00               	movlw	0
  2333   002A00  6FF7               	movwf	247,b	;volatile
  2334                           
  2335                           ;mcc_generated_files/adcc.c: 94:     ADCON1 = 0x00;
  2336   002A02  0E00               	movlw	0
  2337   002A04  6FF9               	movwf	249,b	;volatile
  2338                           
  2339                           ;mcc_generated_files/adcc.c: 96:     ADCON2 = 0x00;
  2340   002A06  0E00               	movlw	0
  2341   002A08  6FFA               	movwf	250,b	;volatile
  2342                           
  2343                           ;mcc_generated_files/adcc.c: 98:     ADCON3 = 0x00;
  2344   002A0A  0E00               	movlw	0
  2345   002A0C  6FFB               	movwf	251,b	;volatile
  2346                           
  2347                           ;mcc_generated_files/adcc.c: 100:     ADSTAT = 0x00;
  2348   002A0E  0E00               	movlw	0
  2349   002A10  6FFC               	movwf	252,b	;volatile
  2350                           
  2351                           ;mcc_generated_files/adcc.c: 102:     ADREF = 0x03;
  2352   002A12  0E03               	movlw	3
  2353   002A14  6FFD               	movwf	253,b	;volatile
  2354                           
  2355                           ;mcc_generated_files/adcc.c: 104:     ADACT = 0x00;
  2356   002A16  0E00               	movlw	0
  2357   002A18  6FFE               	movwf	254,b	;volatile
  2358                           
  2359                           ;mcc_generated_files/adcc.c: 106:     ADCLK = 0x1F;
  2360   002A1A  0E1F               	movlw	31
  2361   002A1C  6FFF               	movwf	255,b	;volatile
  2362                           
  2363                           ;mcc_generated_files/adcc.c: 108:     ADCON0 = 0x84;
  2364   002A1E  0E84               	movlw	132
  2365   002A20  6FF8               	movwf	248,b	;volatile
  2366   002A22                     
  2367                           ; BSR set to: 62
  2368   002A22  0012               	return		;funcret
  2369   002A24                     __end_of_ADCC_Initialize:
  2370                           	callstack 0
  2371                           
  2372 ;; *************** function _PWM5_LoadDutyValue *****************
  2373 ;; Defined at:
  2374 ;;		line 74 in file "mcc_generated_files/pwm5.c"
  2375 ;; Parameters:    Size  Location     Type
  2376 ;;  dutyValue       2    0[BANK1 ] unsigned short 
  2377 ;; Auto vars:     Size  Location     Type
  2378 ;;		None
  2379 ;; Return value:  Size  Location     Type
  2380 ;;                  1    wreg      void 
  2381 ;; Registers used:
  2382 ;;		wreg, status,2, status,0
  2383 ;; Tracked objects:
  2384 ;;		On entry : 0/0
  2385 ;;		On exit  : 0/0
  2386 ;;		Unchanged: 0/0
  2387 ;; Data sizes:     COMRAM   BANK0   BANK1   BANK2   BANK3   BANK4   BANK5   BANK6   BANK7   BANK8   BANK9  BANK10  BANK1
      +1  BANK12  BANK13  BANK14  BANK15
  2388 ;;      Params:         0       0       2       0       0       0       0       0       0       0       0       0       
      +0       0       0       0       0
  2389 ;;      Locals:         0       0       0       0       0       0       0       0       0       0       0       0       
      +0       0       0       0       0
  2390 ;;      Temps:          0       0       2       0       0       0       0       0       0       0       0       0       
      +0       0       0       0       0
  2391 ;;      Totals:         0       0       4       0       0       0       0       0       0       0       0       0       
      +0       0       0       0       0
  2392 ;;Total ram usage:        4 bytes
  2393 ;; Hardware stack levels used: 1
  2394 ;; Hardware stack levels required when called: 7
  2395 ;; This function calls:
  2396 ;;		Nothing
  2397 ;; This function is called by:
  2398 ;;		_main
  2399 ;; This function uses a non-reentrant model
  2400 ;;
  2401                           
  2402                           	psect	text18
  2403   002AAC                     __ptext18:
  2404                           	callstack 0
  2405   002AAC                     _PWM5_LoadDutyValue:
  2406                           	callstack 23
  2407   002AAC                     
  2408                           ;mcc_generated_files/pwm5.c: 74:  void PWM5_LoadDutyValue(uint16_t dutyValue);mcc_genera
      +                          ted_files/pwm5.c: 75:  {;mcc_generated_files/pwm5.c: 77:      PWM5DCH = (dutyValue & 0x0
      +                          3FC)>>2;
  2409   002AAC  C120  F122         	movff	PWM5_LoadDutyValue@dutyValue,??_PWM5_LoadDutyValue
  2410   002AB0  C121  F123         	movff	PWM5_LoadDutyValue@dutyValue+1,??_PWM5_LoadDutyValue+1
  2411   002AB4  0101               	movlb	1	; () banked
  2412   002AB6  90D8               	bcf	status,0,c
  2413   002AB8  3323               	rrcf	(??_PWM5_LoadDutyValue+1)& (0+255),f,b
  2414   002ABA  3322               	rrcf	??_PWM5_LoadDutyValue& (0+255),f,b
  2415   002ABC  90D8               	bcf	status,0,c
  2416   002ABE  3323               	rrcf	(??_PWM5_LoadDutyValue+1)& (0+255),f,b
  2417   002AC0  3322               	rrcf	??_PWM5_LoadDutyValue& (0+255),f,b
  2418   002AC2  5122               	movf	??_PWM5_LoadDutyValue& (0+255),w,b
  2419   002AC4  6E6D               	movwf	109,c	;volatile
  2420                           
  2421                           ;mcc_generated_files/pwm5.c: 80:      PWM5DCL = (dutyValue & 0x0003)<<6;
  2422   002AC6  C120  F122         	movff	PWM5_LoadDutyValue@dutyValue,??_PWM5_LoadDutyValue
  2423   002ACA  0E03               	movlw	3
  2424   002ACC  1722               	andwf	??_PWM5_LoadDutyValue& (0+255),f,b
  2425   002ACE  0E06               	movlw	6
  2426   002AD0  6F23               	movwf	(??_PWM5_LoadDutyValue+1)& (0+255),b
  2427   002AD2                     u4185:
  2428   002AD2  90D8               	bcf	status,0,c
  2429   002AD4  3722               	rlcf	??_PWM5_LoadDutyValue& (0+255),f,b
  2430   002AD6  2F23               	decfsz	(??_PWM5_LoadDutyValue+1)& (0+255),f,b
  2431   002AD8  EF69  F015         	goto	u4185
  2432   002ADC  5122               	movf	??_PWM5_LoadDutyValue& (0+255),w,b
  2433   002ADE  6E6C               	movwf	108,c	;volatile
  2434   002AE0                     
  2435                           ; BSR set to: 1
  2436   002AE0  0012               	return		;funcret
  2437   002AE2                     __end_of_PWM5_LoadDutyValue:
  2438                           	callstack 0
  2439                           
  2440 ;; *************** function _INTERRUPT_InterruptManager *****************
  2441 ;; Defined at:
  2442 ;;		line 90 in file "mcc_generated_files/interrupt_manager.c"
  2443 ;; Parameters:    Size  Location     Type
  2444 ;;		None
  2445 ;; Auto vars:     Size  Location     Type
  2446 ;;  mapeado         2   22[BANK0 ] int 
  2447 ;; Return value:  Size  Location     Type
  2448 ;;                  1    wreg      void 
  2449 ;; Registers used:
  2450 ;;		wreg, fsr1l, fsr1h, fsr2l, fsr2h, status,2, status,0, pcl, pclath, pclatu, tosl, tblptrl, tblptrh, tblptru, prodl, p
      +rodh, cstack
  2451 ;; Tracked objects:
  2452 ;;		On entry : 0/0
  2453 ;;		On exit  : 0/0
  2454 ;;		Unchanged: 0/0
  2455 ;; Data sizes:     COMRAM   BANK0   BANK1   BANK2   BANK3   BANK4   BANK5   BANK6   BANK7   BANK8   BANK9  BANK10  BANK1
      +1  BANK12  BANK13  BANK14  BANK15
  2456 ;;      Params:         0       0       0       0       0       0       0       0       0       0       0       0       
      +0       0       0       0       0
  2457 ;;      Locals:         0       2       0       0       0       0       0       0       0       0       0       0       
      +0       0       0       0       0
  2458 ;;      Temps:          0       8       0       0       0       0       0       0       0       0       0       0       
      +0       0       0       0       0
  2459 ;;      Totals:         0      10       0       0       0       0       0       0       0       0       0       0       
      +0       0       0       0       0
  2460 ;;Total ram usage:       10 bytes
  2461 ;; Hardware stack levels used: 1
  2462 ;; Hardware stack levels required when called: 6
  2463 ;; This function calls:
  2464 ;;		_ADCC_GetSingleConversion
  2465 ;;		_TMR6_ISR
  2466 ;;		_UART_SendString
  2467 ;;		___fldiv
  2468 ;;		___flge
  2469 ;;		___flmul
  2470 ;;		___fltol
  2471 ;;		___xxtofl
  2472 ;;		_map
  2473 ;;		_sprintf
  2474 ;; This function is called by:
  2475 ;;		Interrupt level 2
  2476 ;; This function uses a non-reentrant model
  2477 ;;
  2478                           
  2479                           	psect	text19
  2480   001D12                     __ptext19:
  2481                           	callstack 0
  2482   001D12                     _INTERRUPT_InterruptManager:
  2483                           	callstack 21
  2484                           
  2485                           ; BSR set to: 1
  2486                           ;incstack = 0
  2487   001D12  006F FFE8  F0E7    	movff	pclath,??_INTERRUPT_InterruptManager+2
  2488   001D18  006F FFEC  F0E8    	movff	pclatu,??_INTERRUPT_InterruptManager+3
  2489   001D1E  006F FFD8  F0E9    	movff	tblptrl,??_INTERRUPT_InterruptManager+4
  2490   001D24  006F FFDC  F0EA    	movff	tblptrh,??_INTERRUPT_InterruptManager+5
  2491   001D2A  006F FFE0  F0EB    	movff	tblptru,??_INTERRUPT_InterruptManager+6
  2492   001D30  006F FFD4  F0EC    	movff	tablat,??_INTERRUPT_InterruptManager+7
  2493   001D36                     
  2494                           ;mcc_generated_files/interrupt_manager.c: 93:     if(PIE9bits.TMR6IE == 1 && PIR9bits.TM
      +                          R6IF == 1)
  2495   001D36  0139               	movlb	57	; () banked
  2496   001D38  A199               	btfss	153,0,b	;volatile
  2497   001D3A  EFA1  F00E         	goto	i2u412_41
  2498   001D3E  EFA3  F00E         	goto	i2u412_40
  2499   001D42                     i2u412_41:
  2500   001D42  EFB8  F00F         	goto	i2l1197
  2501   001D46                     i2u412_40:
  2502   001D46                     
  2503                           ; BSR set to: 57
  2504   001D46  A1A9               	btfss	169,0,b	;volatile
  2505   001D48  EFA8  F00E         	goto	i2u413_41
  2506   001D4C  EFAA  F00E         	goto	i2u413_40
  2507   001D50                     i2u413_41:
  2508   001D50  EFB8  F00F         	goto	i2l1197
  2509   001D54                     i2u413_40:
  2510   001D54                     
  2511                           ; BSR set to: 57
  2512                           ;mcc_generated_files/interrupt_manager.c: 94:     {;mcc_generated_files/interrupt_manage
      +                          r.c: 95:         TMR6_ISR();
  2513   001D54  ECBE  F015         	call	_TMR6_ISR	;wreg free
  2514   001D58                     
  2515                           ;mcc_generated_files/interrupt_manager.c: 98:         adc_value = ADCC_GetSingleConversi
      +                          on(ADC_Amplif);
  2516   001D58  0E06               	movlw	6
  2517   001D5A  ECD7  F015         	call	_ADCC_GetSingleConversion
  2518   001D5E  C001  F006         	movff	?_ADCC_GetSingleConversion,___xxtofl@val
  2519   001D62  C002  F007         	movff	?_ADCC_GetSingleConversion+1,___xxtofl@val+1
  2520   001D66  6A08               	clrf	(___xxtofl@val+2)^0,c
  2521   001D68  6A09               	clrf	(___xxtofl@val+3)^0,c
  2522   001D6A  0E00               	movlw	0
  2523   001D6C  ECB8  F010         	call	___xxtofl
  2524   001D70  C006  F0B0         	movff	?___xxtofl,_adc_value
  2525   001D74  C007  F0B1         	movff	?___xxtofl+1,_adc_value+1
  2526   001D78  C008  F0B2         	movff	?___xxtofl+2,_adc_value+2
  2527   001D7C  C009  F0B3         	movff	?___xxtofl+3,_adc_value+3
  2528   001D80                     
  2529                           ;mcc_generated_files/interrupt_manager.c: 99:         amplitud = (float)(adc_value * 2.0
      +                          48f) / 4095.0f;
  2530   001D80  0E6F               	movlw	111
  2531   001D82  6E1D               	movwf	___flmul@a^0,c
  2532   001D84  0E12               	movlw	18
  2533   001D86  6E1E               	movwf	(___flmul@a+1)^0,c
  2534   001D88  0E03               	movlw	3
  2535   001D8A  6E1F               	movwf	(___flmul@a+2)^0,c
  2536   001D8C  0E40               	movlw	64
  2537   001D8E  6E20               	movwf	(___flmul@a+3)^0,c
  2538   001D90  C0B0  F019         	movff	_adc_value,___flmul@b
  2539   001D94  C0B1  F01A         	movff	_adc_value+1,___flmul@b+1
  2540   001D98  C0B2  F01B         	movff	_adc_value+2,___flmul@b+2
  2541   001D9C  C0B3  F01C         	movff	_adc_value+3,___flmul@b+3
  2542   001DA0  EC95  F00A         	call	___flmul	;wreg free
  2543   001DA4  C019  F032         	movff	?___flmul,___fldiv@b
  2544   001DA8  C01A  F033         	movff	?___flmul+1,___fldiv@b+1
  2545   001DAC  C01B  F034         	movff	?___flmul+2,___fldiv@b+2
  2546   001DB0  C01C  F035         	movff	?___flmul+3,___fldiv@b+3
  2547   001DB4  0E00               	movlw	0
  2548   001DB6  6E36               	movwf	___fldiv@a^0,c
  2549   001DB8  0EF0               	movlw	240
  2550   001DBA  6E37               	movwf	(___fldiv@a+1)^0,c
  2551   001DBC  0E7F               	movlw	127
  2552   001DBE  6E38               	movwf	(___fldiv@a+2)^0,c
  2553   001DC0  0E45               	movlw	69
  2554   001DC2  6E39               	movwf	(___fldiv@a+3)^0,c
  2555   001DC4  ECBC  F00C         	call	___fldiv	;wreg free
  2556   001DC8  C032  F0AC         	movff	?___fldiv,_amplitud
  2557   001DCC  C033  F0AD         	movff	?___fldiv+1,_amplitud+1
  2558   001DD0  C034  F0AE         	movff	?___fldiv+2,_amplitud+2
  2559   001DD4  C035  F0AF         	movff	?___fldiv+3,_amplitud+3
  2560   001DD8                     
  2561                           ;mcc_generated_files/interrupt_manager.c: 100:         sampleBuffer[bufferIndex++] = amp
      +                          litud;
  2562   001DD8  0E24               	movlw	low _sampleBuffer
  2563   001DDA  0100               	movlb	0	; () banked
  2564   001DDC  6FE5               	movwf	??_INTERRUPT_InterruptManager& (0+255),b
  2565   001DDE  0E01               	movlw	high _sampleBuffer
  2566   001DE0  6FE6               	movwf	(??_INTERRUPT_InterruptManager+1)& (0+255),b
  2567   001DE2  90D8               	bcf	status,0,c
  2568   001DE4  35BA               	rlcf	_bufferIndex& (0+255),w,b
  2569   001DE6  6ED9               	movwf	fsr2l,c
  2570   001DE8  35BB               	rlcf	(_bufferIndex+1)& (0+255),w,b
  2571   001DEA  6EDA               	movwf	fsr2h,c
  2572   001DEC  90D8               	bcf	status,0,c
  2573   001DEE  36D9               	rlcf	fsr2l,f,c
  2574   001DF0  36DA               	rlcf	fsr2h,f,c
  2575   001DF2  51E5               	movf	??_INTERRUPT_InterruptManager& (0+255),w,b
  2576   001DF4  26D9               	addwf	fsr2l,f,c
  2577   001DF6  51E6               	movf	(??_INTERRUPT_InterruptManager+1)& (0+255),w,b
  2578   001DF8  22DA               	addwfc	fsr2h,f,c
  2579   001DFA  0060  F2B3  FFDE   	movff	_amplitud,postinc2
  2580   001E00  0060  F2B7  FFDE   	movff	_amplitud+1,postinc2
  2581   001E06  0060  F2BB  FFDE   	movff	_amplitud+2,postinc2
  2582   001E0C  0060  F2BF  FFDE   	movff	_amplitud+3,postinc2
  2583   001E12                     
  2584                           ; BSR set to: 0
  2585   001E12  4BBA               	infsnz	_bufferIndex& (0+255),f,b
  2586   001E14  2BBB               	incf	(_bufferIndex+1)& (0+255),f,b
  2587   001E16                     
  2588                           ; BSR set to: 0
  2589                           ;mcc_generated_files/interrupt_manager.c: 103:         if (amplitud > maxSample) {
  2590   001E16  C0A4  F001         	movff	_maxSample,___flge@ff1
  2591   001E1A  C0A5  F002         	movff	_maxSample+1,___flge@ff1+1
  2592   001E1E  C0A6  F003         	movff	_maxSample+2,___flge@ff1+2
  2593   001E22  C0A7  F004         	movff	_maxSample+3,___flge@ff1+3
  2594   001E26  C0AC  F005         	movff	_amplitud,___flge@ff2
  2595   001E2A  C0AD  F006         	movff	_amplitud+1,___flge@ff2+1
  2596   001E2E  C0AE  F007         	movff	_amplitud+2,___flge@ff2+2
  2597   001E32  C0AF  F008         	movff	_amplitud+3,___flge@ff2+3
  2598   001E36  EC16  F012         	call	___flge	;wreg free
  2599   001E3A  B0D8               	btfsc	status,0,c
  2600   001E3C  EF22  F00F         	goto	i2u414_41
  2601   001E40  EF24  F00F         	goto	i2u414_40
  2602   001E44                     i2u414_41:
  2603   001E44  EF2C  F00F         	goto	i2l5467
  2604   001E48                     i2u414_40:
  2605   001E48                     
  2606                           ;mcc_generated_files/interrupt_manager.c: 104:             maxSample = amplitud;
  2607   001E48  C0AC  F0A4         	movff	_amplitud,_maxSample
  2608   001E4C  C0AD  F0A5         	movff	_amplitud+1,_maxSample+1
  2609   001E50  C0AE  F0A6         	movff	_amplitud+2,_maxSample+2
  2610   001E54  C0AF  F0A7         	movff	_amplitud+3,_maxSample+3
  2611   001E58                     i2l5467:
  2612                           
  2613                           ;mcc_generated_files/interrupt_manager.c: 111:         if (bufferIndex >= 128) {
  2614   001E58  0100               	movlb	0	; () banked
  2615   001E5A  51BB               	movf	(_bufferIndex+1)& (0+255),w,b
  2616   001E5C  E109               	bnz	i2u415_40
  2617   001E5E  0E80               	movlw	128
  2618   001E60  5DBA               	subwf	_bufferIndex& (0+255),w,b
  2619   001E62  A0D8               	btfss	status,0,c
  2620   001E64  EF36  F00F         	goto	i2u415_41
  2621   001E68  EF38  F00F         	goto	i2u415_40
  2622   001E6C                     i2u415_41:
  2623   001E6C  EFB8  F00F         	goto	i2l1197
  2624   001E70                     i2u415_40:
  2625   001E70                     
  2626                           ; BSR set to: 0
  2627                           ;mcc_generated_files/interrupt_manager.c: 112:             bufferIndex = 0;
  2628   001E70  0E00               	movlw	0
  2629   001E72  6FBB               	movwf	(_bufferIndex+1)& (0+255),b
  2630   001E74  0E00               	movlw	0
  2631   001E76  6FBA               	movwf	_bufferIndex& (0+255),b
  2632   001E78                     
  2633                           ; BSR set to: 0
  2634                           ;mcc_generated_files/interrupt_manager.c: 115:             if(maxSample >= puntoDeQuiebr
      +                          e) {
  2635   001E78  C0A4  F001         	movff	_maxSample,___flge@ff1
  2636   001E7C  C0A5  F002         	movff	_maxSample+1,___flge@ff1+1
  2637   001E80  C0A6  F003         	movff	_maxSample+2,___flge@ff1+2
  2638   001E84  C0A7  F004         	movff	_maxSample+3,___flge@ff1+3
  2639   001E88  C0F7  F005         	movff	_puntoDeQuiebre,___flge@ff2
  2640   001E8C  C0F8  F006         	movff	_puntoDeQuiebre+1,___flge@ff2+1
  2641   001E90  C0F9  F007         	movff	_puntoDeQuiebre+2,___flge@ff2+2
  2642   001E94  C0FA  F008         	movff	_puntoDeQuiebre+3,___flge@ff2+3
  2643   001E98  EC16  F012         	call	___flge	;wreg free
  2644   001E9C  A0D8               	btfss	status,0,c
  2645   001E9E  EF53  F00F         	goto	i2u416_41
  2646   001EA2  EF55  F00F         	goto	i2u416_40
  2647   001EA6                     i2u416_41:
  2648   001EA6  EFA5  F00F         	goto	i2l5483
  2649   001EAA                     i2u416_40:
  2650   001EAA                     
  2651                           ;mcc_generated_files/interrupt_manager.c: 116:                 int mapeado = (int)map(ma
      +                          xSample, 0.584, 0.661, 0, 100);
  2652   001EAA  0E00               	movlw	0
  2653   001EAC  6E5B               	movwf	map@out_max^0,c
  2654   001EAE  0E00               	movlw	0
  2655   001EB0  6E5C               	movwf	(map@out_max+1)^0,c
  2656   001EB2  0EC8               	movlw	200
  2657   001EB4  6E5D               	movwf	(map@out_max+2)^0,c
  2658   001EB6  0E42               	movlw	66
  2659   001EB8  6E5E               	movwf	(map@out_max+3)^0,c
  2660   001EBA  0E00               	movlw	0
  2661   001EBC  6E57               	movwf	map@out_min^0,c
  2662   001EBE  0E00               	movlw	0
  2663   001EC0  6E58               	movwf	(map@out_min+1)^0,c
  2664   001EC2  0E00               	movlw	0
  2665   001EC4  6E59               	movwf	(map@out_min+2)^0,c
  2666   001EC6  0E00               	movlw	0
  2667   001EC8  6E5A               	movwf	(map@out_min+3)^0,c
  2668   001ECA  0E4C               	movlw	76
  2669   001ECC  6E53               	movwf	map@in_max^0,c
  2670   001ECE  0E37               	movlw	55
  2671   001ED0  6E54               	movwf	(map@in_max+1)^0,c
  2672   001ED2  0E29               	movlw	41
  2673   001ED4  6E55               	movwf	(map@in_max+2)^0,c
  2674   001ED6  0E3F               	movlw	63
  2675   001ED8  6E56               	movwf	(map@in_max+3)^0,c
  2676   001EDA  0E06               	movlw	6
  2677   001EDC  6E4F               	movwf	map@in_min^0,c
  2678   001EDE  0E81               	movlw	129
  2679   001EE0  6E50               	movwf	(map@in_min+1)^0,c
  2680   001EE2  0E15               	movlw	21
  2681   001EE4  6E51               	movwf	(map@in_min+2)^0,c
  2682   001EE6  0E3F               	movlw	63
  2683   001EE8  6E52               	movwf	(map@in_min+3)^0,c
  2684   001EEA  C0A4  F04B         	movff	_maxSample,map@x
  2685   001EEE  C0A5  F04C         	movff	_maxSample+1,map@x+1
  2686   001EF2  C0A6  F04D         	movff	_maxSample+2,map@x+2
  2687   001EF6  C0A7  F04E         	movff	_maxSample+3,map@x+3
  2688   001EFA  EC98  F012         	call	_map	;wreg free
  2689   001EFE  C04B  F0DB         	movff	?_map,___fltol@f1
  2690   001F02  C04C  F0DC         	movff	?_map+1,___fltol@f1+1
  2691   001F06  C04D  F0DD         	movff	?_map+2,___fltol@f1+2
  2692   001F0A  C04E  F0DE         	movff	?_map+3,___fltol@f1+3
  2693   001F0E  EC92  F011         	call	___fltol	;wreg free
  2694   001F12  C0DB  F0ED         	movff	?___fltol,INTERRUPT_InterruptManager@mapeado
  2695   001F16  C0DC  F0EE         	movff	?___fltol+1,INTERRUPT_InterruptManager@mapeado+1
  2696   001F1A                     
  2697                           ;mcc_generated_files/interrupt_manager.c: 119:                 sprintf(buffer, "myLed.pi
      +                          c=0\xFF\xFF\xFF");
  2698   001F1A  0EC3               	movlw	low _buffer
  2699   001F1C  6E1A               	movwf	sprintf@s^0,c
  2700   001F1E  0E4B               	movlw	low STR_1
  2701   001F20  6E1B               	movwf	sprintf@fmt^0,c
  2702   001F22  EC71  F015         	call	_sprintf	;wreg free
  2703   001F26                     
  2704                           ;mcc_generated_files/interrupt_manager.c: 120:                 UART_SendString(buffer);
  2705   001F26  0EC3               	movlw	low _buffer
  2706   001F28  6E02               	movwf	UART_SendString@str^0,c
  2707   001F2A  EC07  F016         	call	_UART_SendString	;wreg free
  2708   001F2E                     
  2709                           ;mcc_generated_files/interrupt_manager.c: 123:                 sprintf(buffer, "PA0.nive
      +                          l.val=%d\xFF\xFF\xFF", mapeado);
  2710   001F2E  0EC3               	movlw	low _buffer
  2711   001F30  6E1A               	movwf	sprintf@s^0,c
  2712   001F32  0E37               	movlw	low STR_2
  2713   001F34  6E1B               	movwf	sprintf@fmt^0,c
  2714   001F36  C0ED  F01C         	movff	INTERRUPT_InterruptManager@mapeado,?_sprintf+2
  2715   001F3A  C0EE  F01D         	movff	INTERRUPT_InterruptManager@mapeado+1,?_sprintf+3
  2716   001F3E  EC71  F015         	call	_sprintf	;wreg free
  2717   001F42                     
  2718                           ;mcc_generated_files/interrupt_manager.c: 124:                 UART_SendString(buffer);
  2719   001F42  0EC3               	movlw	low _buffer
  2720   001F44  6E02               	movwf	UART_SendString@str^0,c
  2721   001F46  EC07  F016         	call	_UART_SendString	;wreg free
  2722   001F4A                     i2l5483:
  2723                           
  2724                           ;mcc_generated_files/interrupt_manager.c: 128:             sprintf(buffer, "myLed.pic=1\
      +                          xFF\xFF\xFF");
  2725   001F4A  0EC3               	movlw	low _buffer
  2726   001F4C  6E1A               	movwf	sprintf@s^0,c
  2727   001F4E  0E5A               	movlw	low STR_3
  2728   001F50  6E1B               	movwf	sprintf@fmt^0,c
  2729   001F52  EC71  F015         	call	_sprintf	;wreg free
  2730   001F56                     
  2731                           ;mcc_generated_files/interrupt_manager.c: 129:             UART_SendString(buffer);
  2732   001F56  0EC3               	movlw	low _buffer
  2733   001F58  6E02               	movwf	UART_SendString@str^0,c
  2734   001F5A  EC07  F016         	call	_UART_SendString	;wreg free
  2735   001F5E                     
  2736                           ;mcc_generated_files/interrupt_manager.c: 133:             maxSample = 0.0f;
  2737   001F5E  0E00               	movlw	0
  2738   001F60  0100               	movlb	0	; () banked
  2739   001F62  6FA4               	movwf	_maxSample& (0+255),b
  2740   001F64  0E00               	movlw	0
  2741   001F66  6FA5               	movwf	(_maxSample+1)& (0+255),b
  2742   001F68  0E00               	movlw	0
  2743   001F6A  6FA6               	movwf	(_maxSample+2)& (0+255),b
  2744   001F6C  0E00               	movlw	0
  2745   001F6E  6FA7               	movwf	(_maxSample+3)& (0+255),b
  2746   001F70                     i2l1197:
  2747   001F70  0060  F3B3  FFF5   	movff	??_INTERRUPT_InterruptManager+7,tablat
  2748   001F76  0060  F3AF  FFF8   	movff	??_INTERRUPT_InterruptManager+6,tblptru
  2749   001F7C  0060  F3AB  FFF7   	movff	??_INTERRUPT_InterruptManager+5,tblptrh
  2750   001F82  0060  F3A7  FFF6   	movff	??_INTERRUPT_InterruptManager+4,tblptrl
  2751   001F88  0060  F3A3  FFFB   	movff	??_INTERRUPT_InterruptManager+3,pclatu
  2752   001F8E  0060  F39F  FFFA   	movff	??_INTERRUPT_InterruptManager+2,pclath
  2753   001F94  0011               	retfie		f
  2754   001F96                     __end_of_INTERRUPT_InterruptManager:
  2755                           	callstack 0
  2756                           
  2757 ;; *************** function _sprintf *****************
  2758 ;; Defined at:
  2759 ;;		line 9 in file "C:\Program Files\Microchip\xc8\v2.45\pic\sources\c99\common\nf_sprintf.c"
  2760 ;; Parameters:    Size  Location     Type
  2761 ;;  s               1   25[COMRAM] PTR unsigned char 
  2762 ;;		 -> buffer(20), 
  2763 ;;  fmt             1   26[COMRAM] PTR const unsigned char 
  2764 ;;		 -> STR_3(15), STR_2(20), STR_1(15), 
  2765 ;; Auto vars:     Size  Location     Type
  2766 ;;  f              12   30[COMRAM] struct _IO_FILE
  2767 ;;  ret             2    0        int 
  2768 ;;  ap              1   29[COMRAM] PTR void [1]
  2769 ;;		 -> ?_sprintf(2), 
  2770 ;; Return value:  Size  Location     Type
  2771 ;;                  2   25[COMRAM] int 
  2772 ;; Registers used:
  2773 ;;		wreg, fsr1l, fsr1h, fsr2l, fsr2h, status,2, status,0, tblptrl, tblptrh, tblptru, cstack
  2774 ;; Tracked objects:
  2775 ;;		On entry : 0/0
  2776 ;;		On exit  : 0/0
  2777 ;;		Unchanged: 0/0
  2778 ;; Data sizes:     COMRAM   BANK0   BANK1   BANK2   BANK3   BANK4   BANK5   BANK6   BANK7   BANK8   BANK9  BANK10  BANK1
      +1  BANK12  BANK13  BANK14  BANK15
  2779 ;;      Params:         4       0       0       0       0       0       0       0       0       0       0       0       
      +0       0       0       0       0
  2780 ;;      Locals:        13       0       0       0       0       0       0       0       0       0       0       0       
      +0       0       0       0       0
  2781 ;;      Temps:          0       0       0       0       0       0       0       0       0       0       0       0       
      +0       0       0       0       0
  2782 ;;      Totals:        17       0       0       0       0       0       0       0       0       0       0       0       
      +0       0       0       0       0
  2783 ;;Total ram usage:       17 bytes
  2784 ;; Hardware stack levels used: 1
  2785 ;; Hardware stack levels required when called: 5
  2786 ;; This function calls:
  2787 ;;		_vfprintf
  2788 ;; This function is called by:
  2789 ;;		_INTERRUPT_InterruptManager
  2790 ;; This function uses a non-reentrant model
  2791 ;;
  2792                           
  2793                           	psect	text20
  2794   002AE2                     __ptext20:
  2795                           	callstack 0
  2796   002AE2                     _sprintf:
  2797                           	callstack 21
  2798   002AE2  0E1C               	movlw	low (?_sprintf+2)
  2799   002AE4  6E1E               	movwf	sprintf@ap^0,c
  2800   002AE6  C01A  F01F         	movff	sprintf@s,sprintf@f
  2801   002AEA  0E00               	movlw	0
  2802   002AEC  6E23               	movwf	(sprintf@f+4)^0,c
  2803   002AEE  0E00               	movlw	0
  2804   002AF0  6E22               	movwf	(sprintf@f+3)^0,c
  2805   002AF2  0E00               	movlw	0
  2806   002AF4  6E2A               	movwf	(sprintf@f+11)^0,c
  2807   002AF6  0E00               	movlw	0
  2808   002AF8  6E29               	movwf	(sprintf@f+10)^0,c
  2809   002AFA  0E1F               	movlw	low sprintf@f
  2810   002AFC  6E16               	movwf	vfprintf@fp^0,c
  2811   002AFE  C01B  F017         	movff	sprintf@fmt,vfprintf@fmt
  2812   002B02  0E1E               	movlw	low sprintf@ap
  2813   002B04  6E18               	movwf	vfprintf@ap^0,c
  2814   002B06  EC35  F015         	call	_vfprintf	;wreg free
  2815   002B0A  501A               	movf	sprintf@s^0,w,c
  2816   002B0C  2422               	addwf	(sprintf@f+3)^0,w,c
  2817   002B0E  6ED9               	movwf	fsr2l,c
  2818   002B10  6ADA               	clrf	fsr2h,c
  2819   002B12  6ADF               	clrf	indf2,c
  2820   002B14  0012               	return		;funcret
  2821   002B16                     __end_of_sprintf:
  2822                           	callstack 0
  2823                           
  2824 ;; *************** function _vfprintf *****************
  2825 ;; Defined at:
  2826 ;;		line 1817 in file "C:\Program Files\Microchip\xc8\v2.45\pic\sources\c99\common\doprnt.c"
  2827 ;; Parameters:    Size  Location     Type
  2828 ;;  fp              1   21[COMRAM] PTR struct _IO_FILE
  2829 ;;		 -> sprintf@f(12), 
  2830 ;;  fmt             1   22[COMRAM] PTR const unsigned char 
  2831 ;;		 -> STR_3(15), STR_2(20), STR_1(15), 
  2832 ;;  ap              1   23[COMRAM] PTR PTR void 
  2833 ;;		 -> sprintf@ap(1), 
  2834 ;; Auto vars:     Size  Location     Type
  2835 ;;  cfmt            1   24[COMRAM] PTR unsigned char 
  2836 ;;		 -> STR_3(15), STR_2(20), STR_1(15), 
  2837 ;; Return value:  Size  Location     Type
  2838 ;;                  2   21[COMRAM] int 
  2839 ;; Registers used:
  2840 ;;		wreg, fsr1l, fsr1h, fsr2l, fsr2h, status,2, status,0, tblptrl, tblptrh, tblptru, cstack
  2841 ;; Tracked objects:
  2842 ;;		On entry : 0/0
  2843 ;;		On exit  : 0/0
  2844 ;;		Unchanged: 0/0
  2845 ;; Data sizes:     COMRAM   BANK0   BANK1   BANK2   BANK3   BANK4   BANK5   BANK6   BANK7   BANK8   BANK9  BANK10  BANK1
      +1  BANK12  BANK13  BANK14  BANK15
  2846 ;;      Params:         3       0       0       0       0       0       0       0       0       0       0       0       
      +0       0       0       0       0
  2847 ;;      Locals:         1       0       0       0       0       0       0       0       0       0       0       0       
      +0       0       0       0       0
  2848 ;;      Temps:          0       0       0       0       0       0       0       0       0       0       0       0       
      +0       0       0       0       0
  2849 ;;      Totals:         4       0       0       0       0       0       0       0       0       0       0       0       
      +0       0       0       0       0
  2850 ;;Total ram usage:        4 bytes
  2851 ;; Hardware stack levels used: 1
  2852 ;; Hardware stack levels required when called: 4
  2853 ;; This function calls:
  2854 ;;		_vfpfcnvrt
  2855 ;; This function is called by:
  2856 ;;		_sprintf
  2857 ;; This function uses a non-reentrant model
  2858 ;;
  2859                           
  2860                           	psect	text21
  2861   002A6A                     __ptext21:
  2862                           	callstack 0
  2863   002A6A                     _vfprintf:
  2864                           	callstack 21
  2865   002A6A                     
  2866                           ;C:\Program Files\Microchip\xc8\v2.45\pic\sources\c99\common\doprnt.c: 1817: int vfprint
      +                          f(FILE *fp, const char *fmt, va_list ap);C:\Program Files\Microchip\xc8\v2.45\pic\source
      +                          s\c99\common\doprnt.c: 1818: {;C:\Program Files\Microchip\xc8\v2.45\pic\sources\c99\comm
      +                          on\doprnt.c: 1820:     char *cfmt;;C:\Program Files\Microchip\xc8\v2.45\pic\sources\c99\
      +                          common\doprnt.c: 1822:     cfmt = (char *)fmt;
  2867   002A6A  C017  F019         	movff	vfprintf@fmt,vfprintf@cfmt
  2868                           
  2869                           ;C:\Program Files\Microchip\xc8\v2.45\pic\sources\c99\common\doprnt.c: 1826:     while (
      +                          *cfmt) {
  2870   002A6E  EF41  F015         	goto	i2l4653
  2871   002A72                     i2l4651:
  2872                           
  2873                           ;C:\Program Files\Microchip\xc8\v2.45\pic\sources\c99\common\doprnt.c: 1830:    vfpfcnvr
      +                          t(fp, &cfmt, ap);
  2874   002A72  C016  F00B         	movff	vfprintf@fp,vfpfcnvrt@fp
  2875   002A76  0E19               	movlw	low vfprintf@cfmt
  2876   002A78  6E0C               	movwf	vfpfcnvrt@fmt^0,c
  2877   002A7A  C018  F00D         	movff	vfprintf@ap,vfpfcnvrt@ap
  2878   002A7E  ECCB  F00F         	call	_vfpfcnvrt	;wreg free
  2879   002A82                     i2l4653:
  2880                           
  2881                           ;C:\Program Files\Microchip\xc8\v2.45\pic\sources\c99\common\doprnt.c: 1826:     while (
      +                          *cfmt) {
  2882   002A82  0060  F067  FFF6   	movff	vfprintf@cfmt,tblptrl
  2883   002A88                     	if	1	;There is more than 1 active tblptr byte
  2884   002A88  0E10               	movlw	high __smallconst
  2885   002A8A  6EF7               	movwf	tblptrh,c
  2886   002A8C                     	endif
  2887   002A8C                     	if	1	;Program memory is < 0x10000, tblptru is always zero
  2888   002A8C  6AF8               	clrf	tblptru,c
  2889   002A8E                     	endif
  2890   002A8E                     	if	0	;tblptru may be non-zero
  2891   002A8E                     	endif
  2892   002A8E  0008               	tblrd		*
  2893   002A90  50F5               	movf	tablat,w,c
  2894   002A92  0900               	iorlw	0
  2895   002A94  A4D8               	btfss	status,2,c
  2896   002A96  EF4F  F015         	goto	i2u326_41
  2897   002A9A  EF51  F015         	goto	i2u326_40
  2898   002A9E                     i2u326_41:
  2899   002A9E  EF39  F015         	goto	i2l4651
  2900   002AA2                     i2u326_40:
  2901   002AA2                     
  2902                           ;C:\Program Files\Microchip\xc8\v2.45\pic\sources\c99\common\doprnt.c: 1835:  return 0;
  2903   002AA2  0E00               	movlw	0
  2904   002AA4  6E17               	movwf	(?_vfprintf+1)^0,c
  2905   002AA6  0E00               	movlw	0
  2906   002AA8  6E16               	movwf	?_vfprintf^0,c
  2907   002AAA  0012               	return		;funcret
  2908   002AAC                     __end_of_vfprintf:
  2909                           	callstack 0
  2910                           
  2911 ;; *************** function _vfpfcnvrt *****************
  2912 ;; Defined at:
  2913 ;;		line 1177 in file "C:\Program Files\Microchip\xc8\v2.45\pic\sources\c99\common\doprnt.c"
  2914 ;; Parameters:    Size  Location     Type
  2915 ;;  fp              1   10[COMRAM] PTR struct _IO_FILE
  2916 ;;		 -> sprintf@f(12), 
  2917 ;;  fmt             1   11[COMRAM] PTR PTR unsigned char 
  2918 ;;		 -> vfprintf@cfmt(1), 
  2919 ;;  ap              1   12[COMRAM] PTR PTR void 
  2920 ;;		 -> sprintf@ap(1), 
  2921 ;; Auto vars:     Size  Location     Type
  2922 ;;  convarg         4   16[COMRAM] struct .
  2923 ;;  c               1   20[COMRAM] unsigned char 
  2924 ;;  cp              1   15[COMRAM] PTR unsigned char 
  2925 ;;		 -> STR_3(15), STR_2(20), STR_1(15), 
  2926 ;;  done            1   14[COMRAM] _Bool 
  2927 ;; Return value:  Size  Location     Type
  2928 ;;                  1    wreg      void 
  2929 ;; Registers used:
  2930 ;;		wreg, fsr1l, fsr1h, fsr2l, fsr2h, status,2, status,0, tblptrl, tblptrh, tblptru, cstack
  2931 ;; Tracked objects:
  2932 ;;		On entry : 0/0
  2933 ;;		On exit  : 0/0
  2934 ;;		Unchanged: 0/0
  2935 ;; Data sizes:     COMRAM   BANK0   BANK1   BANK2   BANK3   BANK4   BANK5   BANK6   BANK7   BANK8   BANK9  BANK10  BANK1
      +1  BANK12  BANK13  BANK14  BANK15
  2936 ;;      Params:         3       0       0       0       0       0       0       0       0       0       0       0       
      +0       0       0       0       0
  2937 ;;      Locals:         7       0       0       0       0       0       0       0       0       0       0       0       
      +0       0       0       0       0
  2938 ;;      Temps:          1       0       0       0       0       0       0       0       0       0       0       0       
      +0       0       0       0       0
  2939 ;;      Totals:        11       0       0       0       0       0       0       0       0       0       0       0       
      +0       0       0       0       0
  2940 ;;Total ram usage:       11 bytes
  2941 ;; Hardware stack levels used: 1
  2942 ;; Hardware stack levels required when called: 3
  2943 ;; This function calls:
  2944 ;;		___awdiv
  2945 ;;		___awmod
  2946 ;;		_abs
  2947 ;;		_fputc
  2948 ;; This function is called by:
  2949 ;;		_vfprintf
  2950 ;; This function uses a non-reentrant model
  2951 ;;
  2952                           
  2953                           	psect	text22
  2954   001F96                     __ptext22:
  2955                           	callstack 0
  2956   001F96                     _vfpfcnvrt:
  2957                           	callstack 21
  2958   001F96                     
  2959                           ;C:\Program Files\Microchip\xc8\v2.45\pic\sources\c99\common\doprnt.c: 1177: vfpfcnvrt(F
      +                          ILE *fp, char *fmt[], va_list ap);C:\Program Files\Microchip\xc8\v2.45\pic\sources\c99\c
      +                          ommon\doprnt.c: 1178: {;C:\Program Files\Microchip\xc8\v2.45\pic\sources\c99\common\dopr
      +                          nt.c: 1179:     char c, *cp;;C:\Program Files\Microchip\xc8\v2.45\pic\sources\c99\common
      +                          \doprnt.c: 1180:     _Bool done;;C:\Program Files\Microchip\xc8\v2.45\pic\sources\c99\co
      +                          mmon\doprnt.c: 1188:  } convarg;;C:\Program Files\Microchip\xc8\v2.45\pic\sources\c99\co
      +                          mmon\doprnt.c: 1201:     if ((*fmt)[0] == '%') {
  2960   001F96  500C               	movf	vfpfcnvrt@fmt^0,w,c
  2961   001F98  6ED9               	movwf	fsr2l,c
  2962   001F9A  6ADA               	clrf	fsr2h,c
  2963   001F9C  006F FF7F FFF6     	movff	indf2,tblptrl
  2964   001FA2                     	if	1	;There is more than 1 active tblptr byte
  2965   001FA2  0E10               	movlw	high __smallconst
  2966   001FA4  6EF7               	movwf	tblptrh,c
  2967   001FA6                     	endif
  2968   001FA6                     	if	1	;Program memory is < 0x10000, tblptru is always zero
  2969   001FA6  6AF8               	clrf	tblptru,c
  2970   001FA8                     	endif
  2971   001FA8                     	if	0	;tblptru may be non-zero
  2972   001FA8                     	endif
  2973   001FA8  0008               	tblrd		*
  2974   001FAA  50F5               	movf	tablat,w,c
  2975   001FAC  0A25               	xorlw	37
  2976   001FAE  A4D8               	btfss	status,2,c
  2977   001FB0  EFDC  F00F         	goto	i2u273_41
  2978   001FB4  EFDE  F00F         	goto	i2u273_40
  2979   001FB8                     i2u273_41:
  2980   001FB8  EFA4  F010         	goto	i2l4287
  2981   001FBC                     i2u273_40:
  2982   001FBC                     
  2983                           ;C:\Program Files\Microchip\xc8\v2.45\pic\sources\c99\common\doprnt.c: 1202:         ++*
      +                          fmt;
  2984   001FBC  500C               	movf	vfpfcnvrt@fmt^0,w,c
  2985   001FBE  6ED9               	movwf	fsr2l,c
  2986   001FC0  6ADA               	clrf	fsr2h,c
  2987   001FC2  2ADF               	incf	indf2,f,c
  2988   001FC4                     
  2989                           ;C:\Program Files\Microchip\xc8\v2.45\pic\sources\c99\common\doprnt.c: 1204:         fla
      +                          gs = width = 0;
  2990   001FC4  0E00               	movlw	0
  2991   001FC6  0100               	movlb	0	; () banked
  2992   001FC8  6FB5               	movwf	(_width+1)& (0+255),b
  2993   001FCA  0E00               	movlw	0
  2994   001FCC  6FB4               	movwf	_width& (0+255),b
  2995   001FCE  C0B4  F05F         	movff	_width,_flags
  2996   001FD2                     
  2997                           ; BSR set to: 0
  2998                           ;C:\Program Files\Microchip\xc8\v2.45\pic\sources\c99\common\doprnt.c: 1205:         pre
      +                          c = -1;
  2999   001FD2  69B6               	setf	_prec& (0+255),b
  3000   001FD4  69B7               	setf	(_prec+1)& (0+255),b
  3001   001FD6                     
  3002                           ; BSR set to: 0
  3003                           ;C:\Program Files\Microchip\xc8\v2.45\pic\sources\c99\common\doprnt.c: 1291:   cp = *fmt
      +                          ;
  3004   001FD6  500C               	movf	vfpfcnvrt@fmt^0,w,c
  3005   001FD8  6ED9               	movwf	fsr2l,c
  3006   001FDA  6ADA               	clrf	fsr2h,c
  3007   001FDC  50DF               	movf	indf2,w,c
  3008   001FDE  6E10               	movwf	vfpfcnvrt@cp^0,c
  3009   001FE0                     
  3010                           ; BSR set to: 0
  3011                           ;C:\Program Files\Microchip\xc8\v2.45\pic\sources\c99\common\doprnt.c: 1361:   if (*cp =
      +                          = 'd' || *cp == 'i') {
  3012   001FE0  0060  F043  FFF6   	movff	vfpfcnvrt@cp,tblptrl
  3013   001FE6                     	if	1	;There is more than 1 active tblptr byte
  3014   001FE6  0E10               	movlw	high __smallconst
  3015   001FE8  6EF7               	movwf	tblptrh,c
  3016   001FEA                     	endif
  3017   001FEA                     	if	1	;Program memory is < 0x10000, tblptru is always zero
  3018   001FEA  6AF8               	clrf	tblptru,c
  3019   001FEC                     	endif
  3020   001FEC                     	if	0	;tblptru may be non-zero
  3021   001FEC                     	endif
  3022   001FEC  0008               	tblrd		*
  3023   001FEE  50F5               	movf	tablat,w,c
  3024   001FF0  0A64               	xorlw	100
  3025   001FF2  B4D8               	btfsc	status,2,c
  3026   001FF4  EFFE  F00F         	goto	i2u274_41
  3027   001FF8  EF00  F010         	goto	i2u274_40
  3028   001FFC                     i2u274_41:
  3029   001FFC  EF10  F010         	goto	i2l4257
  3030   002000                     i2u274_40:
  3031   002000                     
  3032                           ; BSR set to: 0
  3033   002000  0060  F043  FFF6   	movff	vfpfcnvrt@cp,tblptrl
  3034   002006                     	if	1	;There is more than 1 active tblptr byte
  3035   002006  0E10               	movlw	high __smallconst
  3036   002008  6EF7               	movwf	tblptrh,c
  3037   00200A                     	endif
  3038   00200A                     	if	1	;Program memory is < 0x10000, tblptru is always zero
  3039   00200A  6AF8               	clrf	tblptru,c
  3040   00200C                     	endif
  3041   00200C                     	if	0	;tblptru may be non-zero
  3042   00200C                     	endif
  3043   00200C  0008               	tblrd		*
  3044   00200E  50F5               	movf	tablat,w,c
  3045   002010  0A69               	xorlw	105
  3046   002012  A4D8               	btfss	status,2,c
  3047   002014  EF0E  F010         	goto	i2u275_41
  3048   002018  EF10  F010         	goto	i2u275_40
  3049   00201C                     i2u275_41:
  3050   00201C  EF9E  F010         	goto	i2l4283
  3051   002020                     i2u275_40:
  3052   002020                     i2l4257:
  3053                           
  3054                           ; BSR set to: 0
  3055                           ;C:\Program Files\Microchip\xc8\v2.45\pic\sources\c99\common\doprnt.c: 1404:    convarg.
      +                          sint = (vfpf_sint_t)(int)(*(int *)__va_arg(*(int **)ap, (int)0));
  3056   002020  500D               	movf	vfpfcnvrt@ap^0,w,c
  3057   002022  6ED9               	movwf	fsr2l,c
  3058   002024  6ADA               	clrf	fsr2h,c
  3059   002026  0E02               	movlw	2
  3060   002028  26DF               	addwf	indf2,f,c
  3061   00202A  5CDF               	subwf	indf2,w,c
  3062   00202C  6ED9               	movwf	fsr2l,c
  3063   00202E  6ADA               	clrf	fsr2h,c
  3064   002030  006F FF78  F011    	movff	postinc2,vfpfcnvrt@convarg
  3065   002036  006F FF78  F012    	movff	postinc2,vfpfcnvrt@convarg+1
  3066   00203C                     
  3067                           ; BSR set to: 0
  3068                           ;C:\Program Files\Microchip\xc8\v2.45\pic\sources\c99\common\doprnt.c: 1406:    *fmt = c
      +                          p+1;
  3069   00203C  500C               	movf	vfpfcnvrt@fmt^0,w,c
  3070   00203E  6ED9               	movwf	fsr2l,c
  3071   002040  6ADA               	clrf	fsr2h,c
  3072   002042  2810               	incf	vfpfcnvrt@cp^0,w,c
  3073   002044  6EDF               	movwf	indf2,c
  3074   002046                     
  3075                           ; BSR set to: 0
  3076                           ;C:\Program Files\Microchip\xc8\v2.45\pic\sources\c99\common\doprnt.c: 1408:    c = size
      +                          of(dbuf);
  3077   002046  0E20               	movlw	32
  3078   002048  6E15               	movwf	vfpfcnvrt@c^0,c
  3079                           
  3080                           ;C:\Program Files\Microchip\xc8\v2.45\pic\sources\c99\common\doprnt.c: 1409:    done = c
      +                          onvarg.sint < 0;
  3081   00204A  BE12               	btfsc	(vfpfcnvrt@convarg+1)^0,7,c
  3082   00204C  EF2A  F010         	goto	i2u276_41
  3083   002050  EF2D  F010         	goto	i2u276_40
  3084   002054                     i2u276_41:
  3085   002054  0E01               	movlw	1
  3086   002056  EF2E  F010         	goto	i2u277_40
  3087   00205A                     i2u276_40:
  3088   00205A  0E00               	movlw	0
  3089   00205C                     i2u277_40:
  3090   00205C  6E0F               	movwf	vfpfcnvrt@done^0,c
  3091   00205E                     i2l4263:
  3092                           
  3093                           ;C:\Program Files\Microchip\xc8\v2.45\pic\sources\c99\common\doprnt.c: 1411:     dbuf[--
      +                          c] = abs(convarg.sint % 10) + '0';
  3094   00205E  0615               	decf	vfpfcnvrt@c^0,f,c
  3095   002060  0E00               	movlw	low _dbuf
  3096   002062  2415               	addwf	vfpfcnvrt@c^0,w,c
  3097   002064  6ED9               	movwf	fsr2l,c
  3098   002066  6ADA               	clrf	fsr2h,c
  3099   002068  0E01               	movlw	high _dbuf
  3100   00206A  22DA               	addwfc	fsr2h,f,c
  3101   00206C  C011  F001         	movff	vfpfcnvrt@convarg,___awmod@dividend
  3102   002070  C012  F002         	movff	vfpfcnvrt@convarg+1,___awmod@dividend+1
  3103   002074  0E00               	movlw	0
  3104   002076  6E04               	movwf	(___awmod@divisor+1)^0,c
  3105   002078  0E0A               	movlw	10
  3106   00207A  6E03               	movwf	___awmod@divisor^0,c
  3107   00207C  EC77  F013         	call	___awmod	;wreg free
  3108   002080  C001  F007         	movff	?___awmod,abs@a
  3109   002084  C002  F008         	movff	?___awmod+1,abs@a+1
  3110   002088  EC8B  F015         	call	_abs	;wreg free
  3111   00208C  5007               	movf	?_abs^0,w,c
  3112   00208E  0F30               	addlw	48
  3113   002090  6EDF               	movwf	indf2,c
  3114   002092                     
  3115                           ;C:\Program Files\Microchip\xc8\v2.45\pic\sources\c99\common\doprnt.c: 1412:     convarg
      +                          .sint /= 10;
  3116   002092  C011  F001         	movff	vfpfcnvrt@convarg,___awdiv@dividend
  3117   002096  C012  F002         	movff	vfpfcnvrt@convarg+1,___awdiv@dividend+1
  3118   00209A  0E00               	movlw	0
  3119   00209C  6E04               	movwf	(___awdiv@divisor+1)^0,c
  3120   00209E  0E0A               	movlw	10
  3121   0020A0  6E03               	movwf	___awdiv@divisor^0,c
  3122   0020A2  EC15  F013         	call	___awdiv	;wreg free
  3123   0020A6  C001  F011         	movff	?___awdiv,vfpfcnvrt@convarg
  3124   0020AA  C002  F012         	movff	?___awdiv+1,vfpfcnvrt@convarg+1
  3125   0020AE                     
  3126                           ;C:\Program Files\Microchip\xc8\v2.45\pic\sources\c99\common\doprnt.c: 1416:    } while 
      +                          (convarg.sint != 0 && c != 0);
  3127   0020AE  5011               	movf	vfpfcnvrt@convarg^0,w,c
  3128   0020B0  1012               	iorwf	(vfpfcnvrt@convarg+1)^0,w,c
  3129   0020B2  B4D8               	btfsc	status,2,c
  3130   0020B4  EF5E  F010         	goto	i2u278_41
  3131   0020B8  EF60  F010         	goto	i2u278_40
  3132   0020BC                     i2u278_41:
  3133   0020BC  EF68  F010         	goto	i2l4271
  3134   0020C0                     i2u278_40:
  3135   0020C0  5015               	movf	vfpfcnvrt@c^0,w,c
  3136   0020C2  A4D8               	btfss	status,2,c
  3137   0020C4  EF66  F010         	goto	i2u279_41
  3138   0020C8  EF68  F010         	goto	i2u279_40
  3139   0020CC                     i2u279_41:
  3140   0020CC  EF2F  F010         	goto	i2l4263
  3141   0020D0                     i2u279_40:
  3142   0020D0                     i2l4271:
  3143                           
  3144                           ;C:\Program Files\Microchip\xc8\v2.45\pic\sources\c99\common\doprnt.c: 1417:    if (c !=
      +                           0 && done) {
  3145   0020D0  5015               	movf	vfpfcnvrt@c^0,w,c
  3146   0020D2  B4D8               	btfsc	status,2,c
  3147   0020D4  EF6E  F010         	goto	i2u280_41
  3148   0020D8  EF70  F010         	goto	i2u280_40
  3149   0020DC                     i2u280_41:
  3150   0020DC  EF93  F010         	goto	i2l4281
  3151   0020E0                     i2u280_40:
  3152   0020E0  500F               	movf	vfpfcnvrt@done^0,w,c
  3153   0020E2  B4D8               	btfsc	status,2,c
  3154   0020E4  EF76  F010         	goto	i2u281_41
  3155   0020E8  EF78  F010         	goto	i2u281_40
  3156   0020EC                     i2u281_41:
  3157   0020EC  EF93  F010         	goto	i2l4281
  3158   0020F0                     i2u281_40:
  3159   0020F0                     
  3160                           ;C:\Program Files\Microchip\xc8\v2.45\pic\sources\c99\common\doprnt.c: 1418:     dbuf[--
      +                          c] = '-';
  3161   0020F0  0615               	decf	vfpfcnvrt@c^0,f,c
  3162   0020F2  0E00               	movlw	low _dbuf
  3163   0020F4  2415               	addwf	vfpfcnvrt@c^0,w,c
  3164   0020F6  6ED9               	movwf	fsr2l,c
  3165   0020F8  6ADA               	clrf	fsr2h,c
  3166   0020FA  0E01               	movlw	high _dbuf
  3167   0020FC  22DA               	addwfc	fsr2h,f,c
  3168   0020FE  0E2D               	movlw	45
  3169   002100  6EDF               	movwf	indf2,c
  3170   002102  EF93  F010         	goto	i2l4281
  3171   002106                     i2l4277:
  3172                           
  3173                           ;C:\Program Files\Microchip\xc8\v2.45\pic\sources\c99\common\doprnt.c: 1424:     fputc(d
      +                          buf[c++], fp);
  3174   002106  0E00               	movlw	low _dbuf
  3175   002108  2415               	addwf	vfpfcnvrt@c^0,w,c
  3176   00210A  6ED9               	movwf	fsr2l,c
  3177   00210C  6ADA               	clrf	fsr2h,c
  3178   00210E  0E01               	movlw	high _dbuf
  3179   002110  22DA               	addwfc	fsr2h,f,c
  3180   002112  50DF               	movf	indf2,w,c
  3181   002114  6E0E               	movwf	??_vfpfcnvrt^0,c
  3182   002116  500E               	movf	??_vfpfcnvrt^0,w,c
  3183   002118  6E03               	movwf	fputc@c^0,c
  3184   00211A  6A04               	clrf	(fputc@c+1)^0,c
  3185   00211C  C00B  F005         	movff	vfpfcnvrt@fp,fputc@fp
  3186   002120  EC25  F014         	call	_fputc	;wreg free
  3187   002124  2A15               	incf	vfpfcnvrt@c^0,f,c
  3188   002126                     i2l4281:
  3189                           
  3190                           ;C:\Program Files\Microchip\xc8\v2.45\pic\sources\c99\common\doprnt.c: 1423:    while (c
      +                           != sizeof(dbuf)) {
  3191   002126  0E20               	movlw	32
  3192   002128  1815               	xorwf	vfpfcnvrt@c^0,w,c
  3193   00212A  A4D8               	btfss	status,2,c
  3194   00212C  EF9A  F010         	goto	i2u282_41
  3195   002130  EF9C  F010         	goto	i2u282_40
  3196   002134                     i2u282_41:
  3197   002134  EF83  F010         	goto	i2l4277
  3198   002138                     i2u282_40:
  3199   002138  EFB7  F010         	goto	i2l1954
  3200   00213C                     i2l4283:
  3201                           
  3202                           ;C:\Program Files\Microchip\xc8\v2.45\pic\sources\c99\common\doprnt.c: 1806:         ++*
      +                          fmt;
  3203   00213C  500C               	movf	vfpfcnvrt@fmt^0,w,c
  3204   00213E  6ED9               	movwf	fsr2l,c
  3205   002140  6ADA               	clrf	fsr2h,c
  3206   002142  2ADF               	incf	indf2,f,c
  3207   002144  EFB7  F010         	goto	i2l1954
  3208   002148                     i2l4287:
  3209                           
  3210                           ;C:\Program Files\Microchip\xc8\v2.45\pic\sources\c99\common\doprnt.c: 1811:     fputc((
      +                          int)(*fmt)[0], fp);
  3211   002148  500C               	movf	vfpfcnvrt@fmt^0,w,c
  3212   00214A  6ED9               	movwf	fsr2l,c
  3213   00214C  6ADA               	clrf	fsr2h,c
  3214   00214E  006F FF7F FFF6     	movff	indf2,tblptrl
  3215   002154                     	if	1	;There is more than 1 active tblptr byte
  3216   002154  0E10               	movlw	high __smallconst
  3217   002156  6EF7               	movwf	tblptrh,c
  3218   002158                     	endif
  3219   002158                     	if	1	;Program memory is < 0x10000, tblptru is always zero
  3220   002158  6AF8               	clrf	tblptru,c
  3221   00215A                     	endif
  3222   00215A                     	if	0	;tblptru may be non-zero
  3223   00215A                     	endif
  3224   00215A  0008               	tblrd		*
  3225   00215C  50F5               	movf	tablat,w,c
  3226   00215E  6E03               	movwf	fputc@c^0,c
  3227   002160  6A04               	clrf	(fputc@c+1)^0,c
  3228   002162  C00B  F005         	movff	vfpfcnvrt@fp,fputc@fp
  3229   002166  EC25  F014         	call	_fputc	;wreg free
  3230   00216A  EF9E  F010         	goto	i2l4283
  3231   00216E                     i2l1954:
  3232   00216E  0012               	return		;funcret
  3233   002170                     __end_of_vfpfcnvrt:
  3234                           	callstack 0
  3235                           
  3236 ;; *************** function _fputc *****************
  3237 ;; Defined at:
  3238 ;;		line 8 in file "C:\Program Files\Microchip\xc8\v2.45\pic\sources\c99\common\nf_fputc.c"
  3239 ;; Parameters:    Size  Location     Type
  3240 ;;  c               2    2[COMRAM] int 
  3241 ;;  fp              1    4[COMRAM] PTR struct _IO_FILE
  3242 ;;		 -> sprintf@f(12), 
  3243 ;; Auto vars:     Size  Location     Type
  3244 ;;		None
  3245 ;; Return value:  Size  Location     Type
  3246 ;;                  2    2[COMRAM] int 
  3247 ;; Registers used:
  3248 ;;		wreg, fsr1l, fsr1h, fsr2l, fsr2h, status,2, status,0, cstack
  3249 ;; Tracked objects:
  3250 ;;		On entry : 0/0
  3251 ;;		On exit  : 0/0
  3252 ;;		Unchanged: 0/0
  3253 ;; Data sizes:     COMRAM   BANK0   BANK1   BANK2   BANK3   BANK4   BANK5   BANK6   BANK7   BANK8   BANK9  BANK10  BANK1
      +1  BANK12  BANK13  BANK14  BANK15
  3254 ;;      Params:         3       0       0       0       0       0       0       0       0       0       0       0       
      +0       0       0       0       0
  3255 ;;      Locals:         0       0       0       0       0       0       0       0       0       0       0       0       
      +0       0       0       0       0
  3256 ;;      Temps:          5       0       0       0       0       0       0       0       0       0       0       0       
      +0       0       0       0       0
  3257 ;;      Totals:         8       0       0       0       0       0       0       0       0       0       0       0       
      +0       0       0       0       0
  3258 ;;Total ram usage:        8 bytes
  3259 ;; Hardware stack levels used: 1
  3260 ;; Hardware stack levels required when called: 2
  3261 ;; This function calls:
  3262 ;;		_putch
  3263 ;; This function is called by:
  3264 ;;		_vfpfcnvrt
  3265 ;; This function uses a non-reentrant model
  3266 ;;
  3267                           
  3268                           	psect	text23
  3269   00284A                     __ptext23:
  3270                           	callstack 0
  3271   00284A                     _fputc:
  3272                           	callstack 21
  3273   00284A  5005               	movf	fputc@fp^0,w,c
  3274   00284C  B4D8               	btfsc	status,2,c
  3275   00284E  EF2B  F014         	goto	i2u227_41
  3276   002852  EF2D  F014         	goto	i2u227_40
  3277   002856                     i2u227_41:
  3278   002856  EF35  F014         	goto	i2l3983
  3279   00285A                     i2u227_40:
  3280   00285A  5005               	movf	fputc@fp^0,w,c
  3281   00285C  A4D8               	btfss	status,2,c
  3282   00285E  EF33  F014         	goto	i2u228_41
  3283   002862  EF35  F014         	goto	i2u228_40
  3284   002866                     i2u228_41:
  3285   002866  EF3A  F014         	goto	i2l3985
  3286   00286A                     i2u228_40:
  3287   00286A                     i2l3983:
  3288   00286A  5003               	movf	fputc@c^0,w,c
  3289   00286C  EC9B  F016         	call	_putch
  3290   002870  EF7A  F014         	goto	i2l1979
  3291   002874                     i2l3985:
  3292   002874  5005               	movf	fputc@fp^0,w,c
  3293   002876  6ED9               	movwf	fsr2l,c
  3294   002878  6ADA               	clrf	fsr2h,c
  3295   00287A  0E0A               	movlw	10
  3296   00287C  26D9               	addwf	fsr2l,f,c
  3297   00287E  50DE               	movf	postinc2,w,c
  3298   002880  10DE               	iorwf	postinc2,w,c
  3299   002882  B4D8               	btfsc	status,2,c
  3300   002884  EF46  F014         	goto	i2u229_41
  3301   002888  EF48  F014         	goto	i2u229_40
  3302   00288C                     i2u229_41:
  3303   00288C  EF61  F014         	goto	i2l3989
  3304   002890                     i2u229_40:
  3305   002890  5005               	movf	fputc@fp^0,w,c
  3306   002892  6ED9               	movwf	fsr2l,c
  3307   002894  6ADA               	clrf	fsr2h,c
  3308   002896  0E0A               	movlw	10
  3309   002898  26D9               	addwf	fsr2l,f,c
  3310   00289A  5005               	movf	fputc@fp^0,w,c
  3311   00289C  6EE1               	movwf	fsr1l,c
  3312   00289E  6AE2               	clrf	fsr1h,c
  3313   0028A0  0E03               	movlw	3
  3314   0028A2  26E1               	addwf	fsr1l,f,c
  3315   0028A4  50DE               	movf	postinc2,w,c
  3316   0028A6  5CE6               	subwf	postinc1,w,c
  3317   0028A8  50E6               	movf	postinc1,w,c
  3318   0028AA  0A80               	xorlw	128
  3319   0028AC  6E0A               	movwf	(??_fputc+4)^0,c
  3320   0028AE  50DE               	movf	postinc2,w,c
  3321   0028B0  0A80               	xorlw	128
  3322   0028B2  580A               	subwfb	(??_fputc+4)^0,w,c
  3323   0028B4  B0D8               	btfsc	status,0,c
  3324   0028B6  EF5F  F014         	goto	i2u230_41
  3325   0028BA  EF61  F014         	goto	i2u230_40
  3326   0028BE                     i2u230_41:
  3327   0028BE  EF7A  F014         	goto	i2l1979
  3328   0028C2                     i2u230_40:
  3329   0028C2                     i2l3989:
  3330   0028C2  5005               	movf	fputc@fp^0,w,c
  3331   0028C4  6ED9               	movwf	fsr2l,c
  3332   0028C6  6ADA               	clrf	fsr2h,c
  3333   0028C8  0E03               	movlw	3
  3334   0028CA  26D9               	addwf	fsr2l,f,c
  3335   0028CC  50DF               	movf	indf2,w,c
  3336   0028CE  6E06               	movwf	??_fputc^0,c
  3337   0028D0  5005               	movf	fputc@fp^0,w,c
  3338   0028D2  6ED9               	movwf	fsr2l,c
  3339   0028D4  6ADA               	clrf	fsr2h,c
  3340   0028D6  50DF               	movf	indf2,w,c
  3341   0028D8  2406               	addwf	??_fputc^0,w,c
  3342   0028DA  6ED9               	movwf	fsr2l,c
  3343   0028DC  6ADA               	clrf	fsr2h,c
  3344   0028DE  0060  F00F  FFDF   	movff	fputc@c,indf2
  3345   0028E4  5005               	movf	fputc@fp^0,w,c
  3346   0028E6  6ED9               	movwf	fsr2l,c
  3347   0028E8  6ADA               	clrf	fsr2h,c
  3348   0028EA  0E03               	movlw	3
  3349   0028EC  26D9               	addwf	fsr2l,f,c
  3350   0028EE  2ADE               	incf	postinc2,f,c
  3351   0028F0  0E00               	movlw	0
  3352   0028F2  22DD               	addwfc	postdec2,f,c
  3353   0028F4                     i2l1979:
  3354   0028F4  0012               	return		;funcret
  3355   0028F6                     __end_of_fputc:
  3356                           	callstack 0
  3357                           
  3358 ;; *************** function _putch *****************
  3359 ;; Defined at:
  3360 ;;		line 184 in file "mcc_generated_files/uart1.c"
  3361 ;; Parameters:    Size  Location     Type
  3362 ;;  txData          1    wreg     unsigned char 
  3363 ;; Auto vars:     Size  Location     Type
  3364 ;;  txData          1    1[COMRAM] unsigned char 
  3365 ;; Return value:  Size  Location     Type
  3366 ;;                  1    wreg      void 
  3367 ;; Registers used:
  3368 ;;		wreg, status,2, cstack
  3369 ;; Tracked objects:
  3370 ;;		On entry : 0/0
  3371 ;;		On exit  : 0/0
  3372 ;;		Unchanged: 0/0
  3373 ;; Data sizes:     COMRAM   BANK0   BANK1   BANK2   BANK3   BANK4   BANK5   BANK6   BANK7   BANK8   BANK9  BANK10  BANK1
      +1  BANK12  BANK13  BANK14  BANK15
  3374 ;;      Params:         0       0       0       0       0       0       0       0       0       0       0       0       
      +0       0       0       0       0
  3375 ;;      Locals:         1       0       0       0       0       0       0       0       0       0       0       0       
      +0       0       0       0       0
  3376 ;;      Temps:          0       0       0       0       0       0       0       0       0       0       0       0       
      +0       0       0       0       0
  3377 ;;      Totals:         1       0       0       0       0       0       0       0       0       0       0       0       
      +0       0       0       0       0
  3378 ;;Total ram usage:        1 bytes
  3379 ;; Hardware stack levels used: 1
  3380 ;; Hardware stack levels required when called: 1
  3381 ;; This function calls:
  3382 ;;		_UART1_Write
  3383 ;; This function is called by:
  3384 ;;		_fputc
  3385 ;; This function uses a non-reentrant model
  3386 ;;
  3387                           
  3388                           	psect	text24
  3389   002D36                     __ptext24:
  3390                           	callstack 0
  3391   002D36                     _putch:
  3392                           	callstack 21
  3393                           
  3394                           ;incstack = 0
  3395                           ;putch@txData stored from wreg
  3396   002D36  6E02               	movwf	putch@txData^0,c
  3397   002D38                     
  3398                           ;mcc_generated_files/uart1.c: 184: void putch(char txData);mcc_generated_files/uart1.c: 
      +                          185: {;mcc_generated_files/uart1.c: 186:     UART1_Write(txData);
  3399   002D38  5002               	movf	putch@txData^0,w,c
  3400   002D3A  EC5C  F016         	call	_UART1_Write
  3401   002D3E  0012               	return		;funcret
  3402   002D40                     __end_of_putch:
  3403                           	callstack 0
  3404                           
  3405 ;; *************** function _abs *****************
  3406 ;; Defined at:
  3407 ;;		line 1 in file "C:\Program Files\Microchip\xc8\v2.45\pic\sources\c99\common\abs.c"
  3408 ;; Parameters:    Size  Location     Type
  3409 ;;  a               2    6[COMRAM] int 
  3410 ;; Auto vars:     Size  Location     Type
  3411 ;;		None
  3412 ;; Return value:  Size  Location     Type
  3413 ;;                  2    6[COMRAM] int 
  3414 ;; Registers used:
  3415 ;;		wreg, status,2, status,0
  3416 ;; Tracked objects:
  3417 ;;		On entry : 0/0
  3418 ;;		On exit  : 0/0
  3419 ;;		Unchanged: 0/0
  3420 ;; Data sizes:     COMRAM   BANK0   BANK1   BANK2   BANK3   BANK4   BANK5   BANK6   BANK7   BANK8   BANK9  BANK10  BANK1
      +1  BANK12  BANK13  BANK14  BANK15
  3421 ;;      Params:         2       0       0       0       0       0       0       0       0       0       0       0       
      +0       0       0       0       0
  3422 ;;      Locals:         0       0       0       0       0       0       0       0       0       0       0       0       
      +0       0       0       0       0
  3423 ;;      Temps:          2       0       0       0       0       0       0       0       0       0       0       0       
      +0       0       0       0       0
  3424 ;;      Totals:         4       0       0       0       0       0       0       0       0       0       0       0       
      +0       0       0       0       0
  3425 ;;Total ram usage:        4 bytes
  3426 ;; Hardware stack levels used: 1
  3427 ;; This function calls:
  3428 ;;		Nothing
  3429 ;; This function is called by:
  3430 ;;		_vfpfcnvrt
  3431 ;; This function uses a non-reentrant model
  3432 ;;
  3433                           
  3434                           	psect	text25
  3435   002B16                     __ptext25:
  3436                           	callstack 0
  3437   002B16                     _abs:
  3438                           	callstack 23
  3439   002B16  BE08               	btfsc	(abs@a+1)^0,7,c
  3440   002B18  EF90  F015         	goto	i2u231_41
  3441   002B1C  EF92  F015         	goto	i2u231_40
  3442   002B20                     i2u231_41:
  3443   002B20  EF98  F015         	goto	i2l1964
  3444   002B24                     i2u231_40:
  3445   002B24  C007  F007         	movff	abs@a,?_abs
  3446   002B28  C008  F008         	movff	abs@a+1,?_abs+1
  3447   002B2C  EFA4  F015         	goto	i2l1967
  3448   002B30                     i2l1964:
  3449   002B30  C007  F009         	movff	abs@a,??_abs
  3450   002B34  C008  F00A         	movff	abs@a+1,??_abs+1
  3451   002B38  1E09               	comf	??_abs^0,f,c
  3452   002B3A  1E0A               	comf	(??_abs+1)^0,f,c
  3453   002B3C  4A09               	infsnz	??_abs^0,f,c
  3454   002B3E  2A0A               	incf	(??_abs+1)^0,f,c
  3455   002B40  C009  F007         	movff	??_abs,?_abs
  3456   002B44  C00A  F008         	movff	??_abs+1,?_abs+1
  3457   002B48                     i2l1967:
  3458   002B48  0012               	return		;funcret
  3459   002B4A                     __end_of_abs:
  3460                           	callstack 0
  3461                           
  3462 ;; *************** function ___awmod *****************
  3463 ;; Defined at:
  3464 ;;		line 7 in file "C:\Program Files\Microchip\xc8\v2.45\pic\sources\c99\common\awmod.c"
  3465 ;; Parameters:    Size  Location     Type
  3466 ;;  dividend        2    0[COMRAM] int 
  3467 ;;  divisor         2    2[COMRAM] int 
  3468 ;; Auto vars:     Size  Location     Type
  3469 ;;  sign            1    5[COMRAM] unsigned char 
  3470 ;;  counter         1    4[COMRAM] unsigned char 
  3471 ;; Return value:  Size  Location     Type
  3472 ;;                  2    0[COMRAM] int 
  3473 ;; Registers used:
  3474 ;;		wreg, status,2, status,0
  3475 ;; Tracked objects:
  3476 ;;		On entry : 0/0
  3477 ;;		On exit  : 0/0
  3478 ;;		Unchanged: 0/0
  3479 ;; Data sizes:     COMRAM   BANK0   BANK1   BANK2   BANK3   BANK4   BANK5   BANK6   BANK7   BANK8   BANK9  BANK10  BANK1
      +1  BANK12  BANK13  BANK14  BANK15
  3480 ;;      Params:         4       0       0       0       0       0       0       0       0       0       0       0       
      +0       0       0       0       0
  3481 ;;      Locals:         2       0       0       0       0       0       0       0       0       0       0       0       
      +0       0       0       0       0
  3482 ;;      Temps:          0       0       0       0       0       0       0       0       0       0       0       0       
      +0       0       0       0       0
  3483 ;;      Totals:         6       0       0       0       0       0       0       0       0       0       0       0       
      +0       0       0       0       0
  3484 ;;Total ram usage:        6 bytes
  3485 ;; Hardware stack levels used: 1
  3486 ;; This function calls:
  3487 ;;		Nothing
  3488 ;; This function is called by:
  3489 ;;		_vfpfcnvrt
  3490 ;; This function uses a non-reentrant model
  3491 ;;
  3492                           
  3493                           	psect	text26
  3494   0026EE                     __ptext26:
  3495                           	callstack 0
  3496   0026EE                     ___awmod:
  3497                           	callstack 23
  3498   0026EE  0E00               	movlw	0
  3499   0026F0  6E06               	movwf	___awmod@sign^0,c
  3500   0026F2  BE02               	btfsc	(___awmod@dividend+1)^0,7,c
  3501   0026F4  EF80  F013         	goto	i2u221_40
  3502   0026F8  EF7E  F013         	goto	i2u221_41
  3503   0026FC                     i2u221_41:
  3504   0026FC  EF86  F013         	goto	i2l3951
  3505   002700                     i2u221_40:
  3506   002700  6C01               	negf	___awmod@dividend^0,c
  3507   002702  1E02               	comf	(___awmod@dividend+1)^0,f,c
  3508   002704  B0D8               	btfsc	status,0,c
  3509   002706  2A02               	incf	(___awmod@dividend+1)^0,f,c
  3510   002708  0E01               	movlw	1
  3511   00270A  6E06               	movwf	___awmod@sign^0,c
  3512   00270C                     i2l3951:
  3513   00270C  BE04               	btfsc	(___awmod@divisor+1)^0,7,c
  3514   00270E  EF8D  F013         	goto	i2u222_40
  3515   002712  EF8B  F013         	goto	i2u222_41
  3516   002716                     i2u222_41:
  3517   002716  EF91  F013         	goto	i2l3955
  3518   00271A                     i2u222_40:
  3519   00271A  6C03               	negf	___awmod@divisor^0,c
  3520   00271C  1E04               	comf	(___awmod@divisor+1)^0,f,c
  3521   00271E  B0D8               	btfsc	status,0,c
  3522   002720  2A04               	incf	(___awmod@divisor+1)^0,f,c
  3523   002722                     i2l3955:
  3524   002722  5003               	movf	___awmod@divisor^0,w,c
  3525   002724  1004               	iorwf	(___awmod@divisor+1)^0,w,c
  3526   002726  B4D8               	btfsc	status,2,c
  3527   002728  EF98  F013         	goto	i2u223_41
  3528   00272C  EF9A  F013         	goto	i2u223_40
  3529   002730                     i2u223_41:
  3530   002730  EFBE  F013         	goto	i2l3971
  3531   002734                     i2u223_40:
  3532   002734  0E01               	movlw	1
  3533   002736  6E05               	movwf	___awmod@counter^0,c
  3534   002738  EFA2  F013         	goto	i2l3961
  3535   00273C                     i2l3959:
  3536   00273C  90D8               	bcf	status,0,c
  3537   00273E  3603               	rlcf	___awmod@divisor^0,f,c
  3538   002740  3604               	rlcf	(___awmod@divisor+1)^0,f,c
  3539   002742  2A05               	incf	___awmod@counter^0,f,c
  3540   002744                     i2l3961:
  3541   002744  AE04               	btfss	(___awmod@divisor+1)^0,7,c
  3542   002746  EFA7  F013         	goto	i2u224_41
  3543   00274A  EFA9  F013         	goto	i2u224_40
  3544   00274E                     i2u224_41:
  3545   00274E  EF9E  F013         	goto	i2l3959
  3546   002752                     i2u224_40:
  3547   002752                     i2l3963:
  3548   002752  5003               	movf	___awmod@divisor^0,w,c
  3549   002754  5C01               	subwf	___awmod@dividend^0,w,c
  3550   002756  5004               	movf	(___awmod@divisor+1)^0,w,c
  3551   002758  5802               	subwfb	(___awmod@dividend+1)^0,w,c
  3552   00275A  A0D8               	btfss	status,0,c
  3553   00275C  EFB2  F013         	goto	i2u225_41
  3554   002760  EFB4  F013         	goto	i2u225_40
  3555   002764                     i2u225_41:
  3556   002764  EFB8  F013         	goto	i2l3967
  3557   002768                     i2u225_40:
  3558   002768  5003               	movf	___awmod@divisor^0,w,c
  3559   00276A  5E01               	subwf	___awmod@dividend^0,f,c
  3560   00276C  5004               	movf	(___awmod@divisor+1)^0,w,c
  3561   00276E  5A02               	subwfb	(___awmod@dividend+1)^0,f,c
  3562   002770                     i2l3967:
  3563   002770  90D8               	bcf	status,0,c
  3564   002772  3204               	rrcf	(___awmod@divisor+1)^0,f,c
  3565   002774  3203               	rrcf	___awmod@divisor^0,f,c
  3566   002776  2E05               	decfsz	___awmod@counter^0,f,c
  3567   002778  EFA9  F013         	goto	i2l3963
  3568   00277C                     i2l3971:
  3569   00277C  5006               	movf	___awmod@sign^0,w,c
  3570   00277E  B4D8               	btfsc	status,2,c
  3571   002780  EFC4  F013         	goto	i2u226_41
  3572   002784  EFC6  F013         	goto	i2u226_40
  3573   002788                     i2u226_41:
  3574   002788  EFCA  F013         	goto	i2l3975
  3575   00278C                     i2u226_40:
  3576   00278C  6C01               	negf	___awmod@dividend^0,c
  3577   00278E  1E02               	comf	(___awmod@dividend+1)^0,f,c
  3578   002790  B0D8               	btfsc	status,0,c
  3579   002792  2A02               	incf	(___awmod@dividend+1)^0,f,c
  3580   002794                     i2l3975:
  3581   002794  C001  F001         	movff	___awmod@dividend,?___awmod
  3582   002798  C002  F002         	movff	___awmod@dividend+1,?___awmod+1
  3583   00279C  0012               	return		;funcret
  3584   00279E                     __end_of___awmod:
  3585                           	callstack 0
  3586                           
  3587 ;; *************** function ___awdiv *****************
  3588 ;; Defined at:
  3589 ;;		line 7 in file "C:\Program Files\Microchip\xc8\v2.45\pic\sources\c99\common\awdiv.c"
  3590 ;; Parameters:    Size  Location     Type
  3591 ;;  dividend        2    0[COMRAM] int 
  3592 ;;  divisor         2    2[COMRAM] int 
  3593 ;; Auto vars:     Size  Location     Type
  3594 ;;  quotient        2    6[COMRAM] int 
  3595 ;;  sign            1    5[COMRAM] unsigned char 
  3596 ;;  counter         1    4[COMRAM] unsigned char 
  3597 ;; Return value:  Size  Location     Type
  3598 ;;                  2    0[COMRAM] int 
  3599 ;; Registers used:
  3600 ;;		wreg, status,2, status,0
  3601 ;; Tracked objects:
  3602 ;;		On entry : 0/0
  3603 ;;		On exit  : 0/0
  3604 ;;		Unchanged: 0/0
  3605 ;; Data sizes:     COMRAM   BANK0   BANK1   BANK2   BANK3   BANK4   BANK5   BANK6   BANK7   BANK8   BANK9  BANK10  BANK1
      +1  BANK12  BANK13  BANK14  BANK15
  3606 ;;      Params:         4       0       0       0       0       0       0       0       0       0       0       0       
      +0       0       0       0       0
  3607 ;;      Locals:         4       0       0       0       0       0       0       0       0       0       0       0       
      +0       0       0       0       0
  3608 ;;      Temps:          0       0       0       0       0       0       0       0       0       0       0       0       
      +0       0       0       0       0
  3609 ;;      Totals:         8       0       0       0       0       0       0       0       0       0       0       0       
      +0       0       0       0       0
  3610 ;;Total ram usage:        8 bytes
  3611 ;; Hardware stack levels used: 1
  3612 ;; This function calls:
  3613 ;;		Nothing
  3614 ;; This function is called by:
  3615 ;;		_vfpfcnvrt
  3616 ;; This function uses a non-reentrant model
  3617 ;;
  3618                           
  3619                           	psect	text27
  3620   00262A                     __ptext27:
  3621                           	callstack 0
  3622   00262A                     ___awdiv:
  3623                           	callstack 23
  3624   00262A  0E00               	movlw	0
  3625   00262C  6E06               	movwf	___awdiv@sign^0,c
  3626   00262E  BE04               	btfsc	(___awdiv@divisor+1)^0,7,c
  3627   002630  EF1E  F013         	goto	i2u215_40
  3628   002634  EF1C  F013         	goto	i2u215_41
  3629   002638                     i2u215_41:
  3630   002638  EF24  F013         	goto	i2l3907
  3631   00263C                     i2u215_40:
  3632   00263C  6C03               	negf	___awdiv@divisor^0,c
  3633   00263E  1E04               	comf	(___awdiv@divisor+1)^0,f,c
  3634   002640  B0D8               	btfsc	status,0,c
  3635   002642  2A04               	incf	(___awdiv@divisor+1)^0,f,c
  3636   002644  0E01               	movlw	1
  3637   002646  6E06               	movwf	___awdiv@sign^0,c
  3638   002648                     i2l3907:
  3639   002648  BE02               	btfsc	(___awdiv@dividend+1)^0,7,c
  3640   00264A  EF2B  F013         	goto	i2u216_40
  3641   00264E  EF29  F013         	goto	i2u216_41
  3642   002652                     i2u216_41:
  3643   002652  EF31  F013         	goto	i2l3913
  3644   002656                     i2u216_40:
  3645   002656  6C01               	negf	___awdiv@dividend^0,c
  3646   002658  1E02               	comf	(___awdiv@dividend+1)^0,f,c
  3647   00265A  B0D8               	btfsc	status,0,c
  3648   00265C  2A02               	incf	(___awdiv@dividend+1)^0,f,c
  3649   00265E  0E01               	movlw	1
  3650   002660  1A06               	xorwf	___awdiv@sign^0,f,c
  3651   002662                     i2l3913:
  3652   002662  0E00               	movlw	0
  3653   002664  6E08               	movwf	(___awdiv@quotient+1)^0,c
  3654   002666  0E00               	movlw	0
  3655   002668  6E07               	movwf	___awdiv@quotient^0,c
  3656   00266A  5003               	movf	___awdiv@divisor^0,w,c
  3657   00266C  1004               	iorwf	(___awdiv@divisor+1)^0,w,c
  3658   00266E  B4D8               	btfsc	status,2,c
  3659   002670  EF3C  F013         	goto	i2u217_41
  3660   002674  EF3E  F013         	goto	i2u217_40
  3661   002678                     i2u217_41:
  3662   002678  EF66  F013         	goto	i2l3935
  3663   00267C                     i2u217_40:
  3664   00267C  0E01               	movlw	1
  3665   00267E  6E05               	movwf	___awdiv@counter^0,c
  3666   002680  EF46  F013         	goto	i2l3921
  3667   002684                     i2l3919:
  3668   002684  90D8               	bcf	status,0,c
  3669   002686  3603               	rlcf	___awdiv@divisor^0,f,c
  3670   002688  3604               	rlcf	(___awdiv@divisor+1)^0,f,c
  3671   00268A  2A05               	incf	___awdiv@counter^0,f,c
  3672   00268C                     i2l3921:
  3673   00268C  AE04               	btfss	(___awdiv@divisor+1)^0,7,c
  3674   00268E  EF4B  F013         	goto	i2u218_41
  3675   002692  EF4D  F013         	goto	i2u218_40
  3676   002696                     i2u218_41:
  3677   002696  EF42  F013         	goto	i2l3919
  3678   00269A                     i2u218_40:
  3679   00269A                     i2l3923:
  3680   00269A  90D8               	bcf	status,0,c
  3681   00269C  3607               	rlcf	___awdiv@quotient^0,f,c
  3682   00269E  3608               	rlcf	(___awdiv@quotient+1)^0,f,c
  3683   0026A0  5003               	movf	___awdiv@divisor^0,w,c
  3684   0026A2  5C01               	subwf	___awdiv@dividend^0,w,c
  3685   0026A4  5004               	movf	(___awdiv@divisor+1)^0,w,c
  3686   0026A6  5802               	subwfb	(___awdiv@dividend+1)^0,w,c
  3687   0026A8  A0D8               	btfss	status,0,c
  3688   0026AA  EF59  F013         	goto	i2u219_41
  3689   0026AE  EF5B  F013         	goto	i2u219_40
  3690   0026B2                     i2u219_41:
  3691   0026B2  EF60  F013         	goto	i2l3931
  3692   0026B6                     i2u219_40:
  3693   0026B6  5003               	movf	___awdiv@divisor^0,w,c
  3694   0026B8  5E01               	subwf	___awdiv@dividend^0,f,c
  3695   0026BA  5004               	movf	(___awdiv@divisor+1)^0,w,c
  3696   0026BC  5A02               	subwfb	(___awdiv@dividend+1)^0,f,c
  3697   0026BE  8007               	bsf	___awdiv@quotient^0,0,c
  3698   0026C0                     i2l3931:
  3699   0026C0  90D8               	bcf	status,0,c
  3700   0026C2  3204               	rrcf	(___awdiv@divisor+1)^0,f,c
  3701   0026C4  3203               	rrcf	___awdiv@divisor^0,f,c
  3702   0026C6  2E05               	decfsz	___awdiv@counter^0,f,c
  3703   0026C8  EF4D  F013         	goto	i2l3923
  3704   0026CC                     i2l3935:
  3705   0026CC  5006               	movf	___awdiv@sign^0,w,c
  3706   0026CE  B4D8               	btfsc	status,2,c
  3707   0026D0  EF6C  F013         	goto	i2u220_41
  3708   0026D4  EF6E  F013         	goto	i2u220_40
  3709   0026D8                     i2u220_41:
  3710   0026D8  EF72  F013         	goto	i2l3939
  3711   0026DC                     i2u220_40:
  3712   0026DC  6C07               	negf	___awdiv@quotient^0,c
  3713   0026DE  1E08               	comf	(___awdiv@quotient+1)^0,f,c
  3714   0026E0  B0D8               	btfsc	status,0,c
  3715   0026E2  2A08               	incf	(___awdiv@quotient+1)^0,f,c
  3716   0026E4                     i2l3939:
  3717   0026E4  C007  F001         	movff	___awdiv@quotient,?___awdiv
  3718   0026E8  C008  F002         	movff	___awdiv@quotient+1,?___awdiv+1
  3719   0026EC  0012               	return		;funcret
  3720   0026EE                     __end_of___awdiv:
  3721                           	callstack 0
  3722                           
  3723 ;; *************** function _map *****************
  3724 ;; Defined at:
  3725 ;;		line 66 in file "mcc_generated_files/interrupt_manager.c"
  3726 ;; Parameters:    Size  Location     Type
  3727 ;;  x               4   74[COMRAM] float 
  3728 ;;  in_min          4   78[COMRAM] float 
  3729 ;;  in_max          4   82[COMRAM] float 
  3730 ;;  out_min         4   86[COMRAM] float 
  3731 ;;  out_max         4   90[COMRAM] float 
  3732 ;; Auto vars:     Size  Location     Type
  3733 ;;		None
  3734 ;; Return value:  Size  Location     Type
  3735 ;;                  4   74[COMRAM] float 
  3736 ;; Registers used:
  3737 ;;		wreg, status,2, status,0, prodl, prodh, cstack
  3738 ;; Tracked objects:
  3739 ;;		On entry : 0/0
  3740 ;;		On exit  : 0/0
  3741 ;;		Unchanged: 0/0
  3742 ;; Data sizes:     COMRAM   BANK0   BANK1   BANK2   BANK3   BANK4   BANK5   BANK6   BANK7   BANK8   BANK9  BANK10  BANK1
      +1  BANK12  BANK13  BANK14  BANK15
  3743 ;;      Params:        20       0       0       0       0       0       0       0       0       0       0       0       
      +0       0       0       0       0
  3744 ;;      Locals:         0       4       0       0       0       0       0       0       0       0       0       0       
      +0       0       0       0       0
  3745 ;;      Temps:          0       0       0       0       0       0       0       0       0       0       0       0       
      +0       0       0       0       0
  3746 ;;      Totals:        20       4       0       0       0       0       0       0       0       0       0       0       
      +0       0       0       0       0
  3747 ;;Total ram usage:       24 bytes
  3748 ;; Hardware stack levels used: 1
  3749 ;; Hardware stack levels required when called: 2
  3750 ;; This function calls:
  3751 ;;		___fladd
  3752 ;;		___fldiv
  3753 ;;		___flmul
  3754 ;;		___flsub
  3755 ;; This function is called by:
  3756 ;;		_INTERRUPT_InterruptManager
  3757 ;; This function uses a non-reentrant model
  3758 ;;
  3759                           
  3760                           	psect	text28
  3761   002530                     __ptext28:
  3762                           	callstack 0
  3763   002530                     _map:
  3764                           	callstack 24
  3765   002530                     
  3766                           ;mcc_generated_files/interrupt_manager.c: 67:     return (x - in_min) * (out_max - out_m
      +                          in) / (in_max - in_min) + out_min;
  3767   002530  C04F  F015         	movff	map@in_min,___flsub@a
  3768   002534  C050  F016         	movff	map@in_min+1,___flsub@a+1
  3769   002538  C051  F017         	movff	map@in_min+2,___flsub@a+2
  3770   00253C  C052  F018         	movff	map@in_min+3,___flsub@a+3
  3771   002540  C053  F011         	movff	map@in_max,___flsub@b
  3772   002544  C054  F012         	movff	map@in_max+1,___flsub@b+1
  3773   002548  C055  F013         	movff	map@in_max+2,___flsub@b+2
  3774   00254C  C056  F014         	movff	map@in_max+3,___flsub@b+3
  3775   002550  EC12  F015         	call	___flsub	;wreg free
  3776   002554  C011  F036         	movff	?___flsub,___fldiv@a
  3777   002558  C012  F037         	movff	?___flsub+1,___fldiv@a+1
  3778   00255C  C013  F038         	movff	?___flsub+2,___fldiv@a+2
  3779   002560  C014  F039         	movff	?___flsub+3,___fldiv@a+3
  3780   002564  C057  F015         	movff	map@out_min,___flsub@a
  3781   002568  C058  F016         	movff	map@out_min+1,___flsub@a+1
  3782   00256C  C059  F017         	movff	map@out_min+2,___flsub@a+2
  3783   002570  C05A  F018         	movff	map@out_min+3,___flsub@a+3
  3784   002574  C05B  F011         	movff	map@out_max,___flsub@b
  3785   002578  C05C  F012         	movff	map@out_max+1,___flsub@b+1
  3786   00257C  C05D  F013         	movff	map@out_max+2,___flsub@b+2
  3787   002580  C05E  F014         	movff	map@out_max+3,___flsub@b+3
  3788   002584  EC12  F015         	call	___flsub	;wreg free
  3789   002588  C011  F01D         	movff	?___flsub,___flmul@a
  3790   00258C  C012  F01E         	movff	?___flsub+1,___flmul@a+1
  3791   002590  C013  F01F         	movff	?___flsub+2,___flmul@a+2
  3792   002594  C014  F020         	movff	?___flsub+3,___flmul@a+3
  3793   002598  C04F  F015         	movff	map@in_min,___flsub@a
  3794   00259C  C050  F016         	movff	map@in_min+1,___flsub@a+1
  3795   0025A0  C051  F017         	movff	map@in_min+2,___flsub@a+2
  3796   0025A4  C052  F018         	movff	map@in_min+3,___flsub@a+3
  3797   0025A8  C04B  F011         	movff	map@x,___flsub@b
  3798   0025AC  C04C  F012         	movff	map@x+1,___flsub@b+1
  3799   0025B0  C04D  F013         	movff	map@x+2,___flsub@b+2
  3800   0025B4  C04E  F014         	movff	map@x+3,___flsub@b+3
  3801   0025B8  EC12  F015         	call	___flsub	;wreg free
  3802   0025BC  C011  F019         	movff	?___flsub,___flmul@b
  3803   0025C0  C012  F01A         	movff	?___flsub+1,___flmul@b+1
  3804   0025C4  C013  F01B         	movff	?___flsub+2,___flmul@b+2
  3805   0025C8  C014  F01C         	movff	?___flsub+3,___flmul@b+3
  3806   0025CC  EC95  F00A         	call	___flmul	;wreg free
  3807   0025D0  C019  F032         	movff	?___flmul,___fldiv@b
  3808   0025D4  C01A  F033         	movff	?___flmul+1,___fldiv@b+1
  3809   0025D8  C01B  F034         	movff	?___flmul+2,___fldiv@b+2
  3810   0025DC  C01C  F035         	movff	?___flmul+3,___fldiv@b+3
  3811   0025E0  ECBC  F00C         	call	___fldiv	;wreg free
  3812   0025E4  C032  F0D7         	movff	?___fldiv,_map$3492
  3813   0025E8  C033  F0D8         	movff	?___fldiv+1,_map$3492+1
  3814   0025EC  C034  F0D9         	movff	?___fldiv+2,_map$3492+2
  3815   0025F0  C035  F0DA         	movff	?___fldiv+3,_map$3492+3
  3816   0025F4                     
  3817                           ;mcc_generated_files/interrupt_manager.c: 67:     return (x - in_min) * (out_max - out_m
      +                          in) / (in_max - in_min) + out_min;
  3818   0025F4  C0D7  F001         	movff	_map$3492,___fladd@b
  3819   0025F8  C0D8  F002         	movff	_map$3492+1,___fladd@b+1
  3820   0025FC  C0D9  F003         	movff	_map$3492+2,___fladd@b+2
  3821   002600  C0DA  F004         	movff	_map$3492+3,___fladd@b+3
  3822   002604  C057  F005         	movff	map@out_min,___fladd@a
  3823   002608  C058  F006         	movff	map@out_min+1,___fladd@a+1
  3824   00260C  C059  F007         	movff	map@out_min+2,___fladd@a+2
  3825   002610  C05A  F008         	movff	map@out_min+3,___fladd@a+3
  3826   002614  EC35  F008         	call	___fladd	;wreg free
  3827   002618  C001  F04B         	movff	?___fladd,?_map
  3828   00261C  C002  F04C         	movff	?___fladd+1,?_map+1
  3829   002620  C003  F04D         	movff	?___fladd+2,?_map+2
  3830   002624  C004  F04E         	movff	?___fladd+3,?_map+3
  3831   002628  0012               	return		;funcret
  3832   00262A                     __end_of_map:
  3833                           	callstack 0
  3834                           
  3835 ;; *************** function ___flsub *****************
  3836 ;; Defined at:
  3837 ;;		line 245 in file "C:\Program Files\Microchip\xc8\v2.45\pic\sources\c99\common\sprcadd.c"
  3838 ;; Parameters:    Size  Location     Type
  3839 ;;  b               4   16[COMRAM] float 
  3840 ;;  a               4   20[COMRAM] float 
  3841 ;; Auto vars:     Size  Location     Type
  3842 ;;		None
  3843 ;; Return value:  Size  Location     Type
  3844 ;;                  4   16[COMRAM] float 
  3845 ;; Registers used:
  3846 ;;		wreg, status,2, status,0, cstack
  3847 ;; Tracked objects:
  3848 ;;		On entry : 0/0
  3849 ;;		On exit  : 0/0
  3850 ;;		Unchanged: 0/0
  3851 ;; Data sizes:     COMRAM   BANK0   BANK1   BANK2   BANK3   BANK4   BANK5   BANK6   BANK7   BANK8   BANK9  BANK10  BANK1
      +1  BANK12  BANK13  BANK14  BANK15
  3852 ;;      Params:         8       0       0       0       0       0       0       0       0       0       0       0       
      +0       0       0       0       0
  3853 ;;      Locals:         0       0       0       0       0       0       0       0       0       0       0       0       
      +0       0       0       0       0
  3854 ;;      Temps:          0       0       0       0       0       0       0       0       0       0       0       0       
      +0       0       0       0       0
  3855 ;;      Totals:         8       0       0       0       0       0       0       0       0       0       0       0       
      +0       0       0       0       0
  3856 ;;Total ram usage:        8 bytes
  3857 ;; Hardware stack levels used: 1
  3858 ;; Hardware stack levels required when called: 1
  3859 ;; This function calls:
  3860 ;;		___fladd
  3861 ;; This function is called by:
  3862 ;;		_map
  3863 ;; This function uses a non-reentrant model
  3864 ;;
  3865                           
  3866                           	psect	text29
  3867   002A24                     __ptext29:
  3868                           	callstack 0
  3869   002A24                     ___flsub:
  3870                           	callstack 24
  3871   002A24  0E00               	movlw	0
  3872   002A26  1A15               	xorwf	___flsub@a^0,f,c
  3873   002A28  0E00               	movlw	0
  3874   002A2A  1A16               	xorwf	(___flsub@a+1)^0,f,c
  3875   002A2C  0E00               	movlw	0
  3876   002A2E  1A17               	xorwf	(___flsub@a+2)^0,f,c
  3877   002A30  0E80               	movlw	128
  3878   002A32  1A18               	xorwf	(___flsub@a+3)^0,f,c
  3879   002A34  C011  F001         	movff	___flsub@b,___fladd@b
  3880   002A38  C012  F002         	movff	___flsub@b+1,___fladd@b+1
  3881   002A3C  C013  F003         	movff	___flsub@b+2,___fladd@b+2
  3882   002A40  C014  F004         	movff	___flsub@b+3,___fladd@b+3
  3883   002A44  C015  F005         	movff	___flsub@a,___fladd@a
  3884   002A48  C016  F006         	movff	___flsub@a+1,___fladd@a+1
  3885   002A4C  C017  F007         	movff	___flsub@a+2,___fladd@a+2
  3886   002A50  C018  F008         	movff	___flsub@a+3,___fladd@a+3
  3887   002A54  EC35  F008         	call	___fladd	;wreg free
  3888   002A58  C001  F011         	movff	?___fladd,?___flsub
  3889   002A5C  C002  F012         	movff	?___fladd+1,?___flsub+1
  3890   002A60  C003  F013         	movff	?___fladd+2,?___flsub+2
  3891   002A64  C004  F014         	movff	?___fladd+3,?___flsub+3
  3892   002A68  0012               	return		;funcret
  3893   002A6A                     __end_of___flsub:
  3894                           	callstack 0
  3895                           
  3896 ;; *************** function ___fladd *****************
  3897 ;; Defined at:
  3898 ;;		line 10 in file "C:\Program Files\Microchip\xc8\v2.45\pic\sources\c99\common\sprcadd.c"
  3899 ;; Parameters:    Size  Location     Type
  3900 ;;  b               4    0[COMRAM] float 
  3901 ;;  a               4    4[COMRAM] float 
  3902 ;; Auto vars:     Size  Location     Type
  3903 ;;  grs             1   15[COMRAM] unsigned char 
  3904 ;;  bexp            1   14[COMRAM] unsigned char 
  3905 ;;  aexp            1   13[COMRAM] unsigned char 
  3906 ;;  signs           1   12[COMRAM] unsigned char 
  3907 ;; Return value:  Size  Location     Type
  3908 ;;                  4    0[COMRAM] unsigned char 
  3909 ;; Registers used:
  3910 ;;		wreg, status,2, status,0
  3911 ;; Tracked objects:
  3912 ;;		On entry : 0/0
  3913 ;;		On exit  : 0/0
  3914 ;;		Unchanged: 0/0
  3915 ;; Data sizes:     COMRAM   BANK0   BANK1   BANK2   BANK3   BANK4   BANK5   BANK6   BANK7   BANK8   BANK9  BANK10  BANK1
      +1  BANK12  BANK13  BANK14  BANK15
  3916 ;;      Params:         8       0       0       0       0       0       0       0       0       0       0       0       
      +0       0       0       0       0
  3917 ;;      Locals:         4       0       0       0       0       0       0       0       0       0       0       0       
      +0       0       0       0       0
  3918 ;;      Temps:          4       0       0       0       0       0       0       0       0       0       0       0       
      +0       0       0       0       0
  3919 ;;      Totals:        16       0       0       0       0       0       0       0       0       0       0       0       
      +0       0       0       0       0
  3920 ;;Total ram usage:       16 bytes
  3921 ;; Hardware stack levels used: 1
  3922 ;; This function calls:
  3923 ;;		Nothing
  3924 ;; This function is called by:
  3925 ;;		_map
  3926 ;;		___flsub
  3927 ;; This function uses a non-reentrant model
  3928 ;;
  3929                           
  3930                           	psect	text30
  3931   00106A                     __ptext30:
  3932                           	callstack 0
  3933   00106A                     ___fladd:
  3934                           	callstack 24
  3935   00106A  5004               	movf	(___fladd@b+3)^0,w,c
  3936   00106C  0B80               	andlw	128
  3937   00106E  6E0D               	movwf	___fladd@signs^0,c
  3938   001070  5004               	movf	(___fladd@b+3)^0,w,c
  3939   001072  2404               	addwf	(___fladd@b+3)^0,w,c
  3940   001074  6E0F               	movwf	___fladd@bexp^0,c
  3941   001076  AE03               	btfss	(___fladd@b+2)^0,7,c
  3942   001078  EF40  F008         	goto	i2u234_41
  3943   00107C  EF42  F008         	goto	i2u234_40
  3944   001080                     i2u234_41:
  3945   001080  EF43  F008         	goto	i2l4047
  3946   001084                     i2u234_40:
  3947   001084  800F               	bsf	___fladd@bexp^0,0,c
  3948   001086                     i2l4047:
  3949   001086  500F               	movf	___fladd@bexp^0,w,c
  3950   001088  B4D8               	btfsc	status,2,c
  3951   00108A  EF49  F008         	goto	i2u235_41
  3952   00108E  EF4B  F008         	goto	i2u235_40
  3953   001092                     i2u235_41:
  3954   001092  EF60  F008         	goto	i2l4057
  3955   001096                     i2u235_40:
  3956   001096  280F               	incf	___fladd@bexp^0,w,c
  3957   001098  A4D8               	btfss	status,2,c
  3958   00109A  EF51  F008         	goto	i2u236_41
  3959   00109E  EF53  F008         	goto	i2u236_40
  3960   0010A2                     i2u236_41:
  3961   0010A2  EF5B  F008         	goto	i2l4053
  3962   0010A6                     i2u236_40:
  3963   0010A6  0E00               	movlw	0
  3964   0010A8  6E01               	movwf	___fladd@b^0,c
  3965   0010AA  0E00               	movlw	0
  3966   0010AC  6E02               	movwf	(___fladd@b+1)^0,c
  3967   0010AE  0E00               	movlw	0
  3968   0010B0  6E03               	movwf	(___fladd@b+2)^0,c
  3969   0010B2  0E00               	movlw	0
  3970   0010B4  6E04               	movwf	(___fladd@b+3)^0,c
  3971   0010B6                     i2l4053:
  3972   0010B6  8E03               	bsf	(___fladd@b+2)^0,7,c
  3973   0010B8  0E00               	movlw	0
  3974   0010BA  6E04               	movwf	(___fladd@b+3)^0,c
  3975   0010BC  EF68  F008         	goto	i2l4059
  3976   0010C0                     i2l4057:
  3977   0010C0  0E00               	movlw	0
  3978   0010C2  6E01               	movwf	___fladd@b^0,c
  3979   0010C4  0E00               	movlw	0
  3980   0010C6  6E02               	movwf	(___fladd@b+1)^0,c
  3981   0010C8  0E00               	movlw	0
  3982   0010CA  6E03               	movwf	(___fladd@b+2)^0,c
  3983   0010CC  0E00               	movlw	0
  3984   0010CE  6E04               	movwf	(___fladd@b+3)^0,c
  3985   0010D0                     i2l4059:
  3986   0010D0  5008               	movf	(___fladd@a+3)^0,w,c
  3987   0010D2  0B80               	andlw	128
  3988   0010D4  6E0E               	movwf	___fladd@aexp^0,c
  3989   0010D6  500D               	movf	___fladd@signs^0,w,c
  3990   0010D8  180E               	xorwf	___fladd@aexp^0,w,c
  3991   0010DA  B4D8               	btfsc	status,2,c
  3992   0010DC  EF72  F008         	goto	i2u237_41
  3993   0010E0  EF74  F008         	goto	i2u237_40
  3994   0010E4                     i2u237_41:
  3995   0010E4  EF75  F008         	goto	i2l4065
  3996   0010E8                     i2u237_40:
  3997   0010E8  8C0D               	bsf	___fladd@signs^0,6,c
  3998   0010EA                     i2l4065:
  3999   0010EA  5008               	movf	(___fladd@a+3)^0,w,c
  4000   0010EC  2408               	addwf	(___fladd@a+3)^0,w,c
  4001   0010EE  6E0E               	movwf	___fladd@aexp^0,c
  4002   0010F0  AE07               	btfss	(___fladd@a+2)^0,7,c
  4003   0010F2  EF7D  F008         	goto	i2u238_41
  4004   0010F6  EF7F  F008         	goto	i2u238_40
  4005   0010FA                     i2u238_41:
  4006   0010FA  EF80  F008         	goto	i2l4071
  4007   0010FE                     i2u238_40:
  4008   0010FE  800E               	bsf	___fladd@aexp^0,0,c
  4009   001100                     i2l4071:
  4010   001100  500E               	movf	___fladd@aexp^0,w,c
  4011   001102  B4D8               	btfsc	status,2,c
  4012   001104  EF86  F008         	goto	i2u239_41
  4013   001108  EF88  F008         	goto	i2u239_40
  4014   00110C                     i2u239_41:
  4015   00110C  EF9D  F008         	goto	i2l4081
  4016   001110                     i2u239_40:
  4017   001110  280E               	incf	___fladd@aexp^0,w,c
  4018   001112  A4D8               	btfss	status,2,c
  4019   001114  EF8E  F008         	goto	i2u240_41
  4020   001118  EF90  F008         	goto	i2u240_40
  4021   00111C                     i2u240_41:
  4022   00111C  EF98  F008         	goto	i2l4077
  4023   001120                     i2u240_40:
  4024   001120  0E00               	movlw	0
  4025   001122  6E05               	movwf	___fladd@a^0,c
  4026   001124  0E00               	movlw	0
  4027   001126  6E06               	movwf	(___fladd@a+1)^0,c
  4028   001128  0E00               	movlw	0
  4029   00112A  6E07               	movwf	(___fladd@a+2)^0,c
  4030   00112C  0E00               	movlw	0
  4031   00112E  6E08               	movwf	(___fladd@a+3)^0,c
  4032   001130                     i2l4077:
  4033   001130  8E07               	bsf	(___fladd@a+2)^0,7,c
  4034   001132  0E00               	movlw	0
  4035   001134  6E08               	movwf	(___fladd@a+3)^0,c
  4036   001136  EFA5  F008         	goto	i2l4083
  4037   00113A                     i2l4081:
  4038   00113A  0E00               	movlw	0
  4039   00113C  6E05               	movwf	___fladd@a^0,c
  4040   00113E  0E00               	movlw	0
  4041   001140  6E06               	movwf	(___fladd@a+1)^0,c
  4042   001142  0E00               	movlw	0
  4043   001144  6E07               	movwf	(___fladd@a+2)^0,c
  4044   001146  0E00               	movlw	0
  4045   001148  6E08               	movwf	(___fladd@a+3)^0,c
  4046   00114A                     i2l4083:
  4047   00114A  500F               	movf	___fladd@bexp^0,w,c
  4048   00114C  5C0E               	subwf	___fladd@aexp^0,w,c
  4049   00114E  B0D8               	btfsc	status,0,c
  4050   001150  EFAC  F008         	goto	i2u241_41
  4051   001154  EFAE  F008         	goto	i2u241_40
  4052   001158                     i2u241_41:
  4053   001158  EFD5  F008         	goto	i2l4119
  4054   00115C                     i2u241_40:
  4055   00115C  AC0D               	btfss	___fladd@signs^0,6,c
  4056   00115E  EFB3  F008         	goto	i2u242_41
  4057   001162  EFB5  F008         	goto	i2u242_40
  4058   001166                     i2u242_41:
  4059   001166  EFB7  F008         	goto	i2l4089
  4060   00116A                     i2u242_40:
  4061   00116A  0E80               	movlw	128
  4062   00116C  1A0D               	xorwf	___fladd@signs^0,f,c
  4063   00116E                     i2l4089:
  4064   00116E  C00F  F010         	movff	___fladd@bexp,___fladd@grs
  4065   001172  C00E  F00F         	movff	___fladd@aexp,___fladd@bexp
  4066   001176  C010  F00E         	movff	___fladd@grs,___fladd@aexp
  4067   00117A  C001  F010         	movff	___fladd@b,___fladd@grs
  4068   00117E  C005  F001         	movff	___fladd@a,___fladd@b
  4069   001182  C010  F005         	movff	___fladd@grs,___fladd@a
  4070   001186  C002  F010         	movff	___fladd@b+1,___fladd@grs
  4071   00118A  C006  F002         	movff	___fladd@a+1,___fladd@b+1
  4072   00118E  C010  F006         	movff	___fladd@grs,___fladd@a+1
  4073   001192  C003  F010         	movff	___fladd@b+2,___fladd@grs
  4074   001196  C007  F003         	movff	___fladd@a+2,___fladd@b+2
  4075   00119A  C010  F007         	movff	___fladd@grs,___fladd@a+2
  4076   00119E  C004  F010         	movff	___fladd@b+3,___fladd@grs
  4077   0011A2  C008  F004         	movff	___fladd@a+3,___fladd@b+3
  4078   0011A6  C010  F008         	movff	___fladd@grs,___fladd@a+3
  4079   0011AA                     i2l4119:
  4080   0011AA  0E00               	movlw	0
  4081   0011AC  6E10               	movwf	___fladd@grs^0,c
  4082   0011AE  500F               	movf	___fladd@bexp^0,w,c
  4083   0011B0  C00E  F009         	movff	___fladd@aexp,??___fladd
  4084   0011B4  6A0A               	clrf	(??___fladd+1)^0,c
  4085   0011B6  5E09               	subwf	??___fladd^0,f,c
  4086   0011B8  0E00               	movlw	0
  4087   0011BA  5A0A               	subwfb	(??___fladd+1)^0,f,c
  4088   0011BC  BE0A               	btfsc	(??___fladd+1)^0,7,c
  4089   0011BE  EFEA  F008         	goto	i2u243_41
  4090   0011C2  500A               	movf	(??___fladd+1)^0,w,c
  4091   0011C4  E109               	bnz	i2u243_40
  4092   0011C6  0E1A               	movlw	26
  4093   0011C8  5C09               	subwf	??___fladd^0,w,c
  4094   0011CA  A0D8               	btfss	status,0,c
  4095   0011CC  EFEA  F008         	goto	i2u243_41
  4096   0011D0  EFEC  F008         	goto	i2u243_40
  4097   0011D4                     i2u243_41:
  4098   0011D4  EF23  F009         	goto	i2l1767
  4099   0011D8                     i2u243_40:
  4100   0011D8  5001               	movf	___fladd@b^0,w,c
  4101   0011DA  1002               	iorwf	(___fladd@b+1)^0,w,c
  4102   0011DC  1003               	iorwf	(___fladd@b+2)^0,w,c
  4103   0011DE  1004               	iorwf	(___fladd@b+3)^0,w,c
  4104   0011E0  A4D8               	btfss	status,2,c
  4105   0011E2  EFF5  F008         	goto	i2u244_41
  4106   0011E6  EFF8  F008         	goto	i2u244_40
  4107   0011EA                     i2u244_41:
  4108   0011EA  0E01               	movlw	1
  4109   0011EC  EFF9  F008         	goto	i2u245_40
  4110   0011F0                     i2u244_40:
  4111   0011F0  0E00               	movlw	0
  4112   0011F2                     i2u245_40:
  4113   0011F2  6E10               	movwf	___fladd@grs^0,c
  4114   0011F4  0E00               	movlw	0
  4115   0011F6  6E01               	movwf	___fladd@b^0,c
  4116   0011F8  0E00               	movlw	0
  4117   0011FA  6E02               	movwf	(___fladd@b+1)^0,c
  4118   0011FC  0E00               	movlw	0
  4119   0011FE  6E03               	movwf	(___fladd@b+2)^0,c
  4120   001200  0E00               	movlw	0
  4121   001202  6E04               	movwf	(___fladd@b+3)^0,c
  4122   001204  C00E  F00F         	movff	___fladd@aexp,___fladd@bexp
  4123   001208  EF2C  F009         	goto	i2l1766
  4124   00120C                     i2l1768:
  4125   00120C  A010               	btfss	___fladd@grs^0,0,c
  4126   00120E  EF0B  F009         	goto	i2u246_41
  4127   001212  EF0D  F009         	goto	i2u246_40
  4128   001216                     i2u246_41:
  4129   001216  EF13  F009         	goto	i2l4131
  4130   00121A                     i2u246_40:
  4131   00121A  90D8               	bcf	status,0,c
  4132   00121C  3010               	rrcf	___fladd@grs^0,w,c
  4133   00121E  0901               	iorlw	1
  4134   001220  6E10               	movwf	___fladd@grs^0,c
  4135   001222  EF15  F009         	goto	i2l4133
  4136   001226                     i2l4131:
  4137   001226  90D8               	bcf	status,0,c
  4138   001228  3210               	rrcf	___fladd@grs^0,f,c
  4139   00122A                     i2l4133:
  4140   00122A  A001               	btfss	___fladd@b^0,0,c
  4141   00122C  EF1A  F009         	goto	i2u247_41
  4142   001230  EF1C  F009         	goto	i2u247_40
  4143   001234                     i2u247_41:
  4144   001234  EF1D  F009         	goto	i2l4137
  4145   001238                     i2u247_40:
  4146   001238  8E10               	bsf	___fladd@grs^0,7,c
  4147   00123A                     i2l4137:
  4148   00123A  3404               	rlcf	(___fladd@b+3)^0,w,c
  4149   00123C  3204               	rrcf	(___fladd@b+3)^0,f,c
  4150   00123E  3203               	rrcf	(___fladd@b+2)^0,f,c
  4151   001240  3202               	rrcf	(___fladd@b+1)^0,f,c
  4152   001242  3201               	rrcf	___fladd@b^0,f,c
  4153   001244  2A0F               	incf	___fladd@bexp^0,f,c
  4154   001246                     i2l1767:
  4155   001246  500E               	movf	___fladd@aexp^0,w,c
  4156   001248  5C0F               	subwf	___fladd@bexp^0,w,c
  4157   00124A  A0D8               	btfss	status,0,c
  4158   00124C  EF2A  F009         	goto	i2u248_41
  4159   001250  EF2C  F009         	goto	i2u248_40
  4160   001254                     i2u248_41:
  4161   001254  EF06  F009         	goto	i2l1768
  4162   001258                     i2u248_40:
  4163   001258                     i2l1766:
  4164   001258  BC0D               	btfsc	___fladd@signs^0,6,c
  4165   00125A  EF31  F009         	goto	i2u249_41
  4166   00125E  EF33  F009         	goto	i2u249_40
  4167   001262                     i2u249_41:
  4168   001262  EF73  F009         	goto	i2l4165
  4169   001266                     i2u249_40:
  4170   001266  500F               	movf	___fladd@bexp^0,w,c
  4171   001268  A4D8               	btfss	status,2,c
  4172   00126A  EF39  F009         	goto	i2u250_41
  4173   00126E  EF3B  F009         	goto	i2u250_40
  4174   001272                     i2u250_41:
  4175   001272  EF45  F009         	goto	i2l4147
  4176   001276                     i2u250_40:
  4177   001276  0E00               	movlw	0
  4178   001278  6E01               	movwf	?___fladd^0,c
  4179   00127A  0E00               	movlw	0
  4180   00127C  6E02               	movwf	(?___fladd+1)^0,c
  4181   00127E  0E00               	movlw	0
  4182   001280  6E03               	movwf	(?___fladd+2)^0,c
  4183   001282  0E00               	movlw	0
  4184   001284  6E04               	movwf	(?___fladd+3)^0,c
  4185   001286  EF94  F00A         	goto	i2l1775
  4186   00128A                     i2l4147:
  4187   00128A  5005               	movf	___fladd@a^0,w,c
  4188   00128C  2601               	addwf	___fladd@b^0,f,c
  4189   00128E  5006               	movf	(___fladd@a+1)^0,w,c
  4190   001290  2202               	addwfc	(___fladd@b+1)^0,f,c
  4191   001292  5007               	movf	(___fladd@a+2)^0,w,c
  4192   001294  2203               	addwfc	(___fladd@b+2)^0,f,c
  4193   001296  5008               	movf	(___fladd@a+3)^0,w,c
  4194   001298  2204               	addwfc	(___fladd@b+3)^0,f,c
  4195   00129A  A004               	btfss	(___fladd@b+3)^0,0,c
  4196   00129C  EF52  F009         	goto	i2u251_41
  4197   0012A0  EF54  F009         	goto	i2u251_40
  4198   0012A4                     i2u251_41:
  4199   0012A4  EF00  F00A         	goto	i2l4201
  4200   0012A8                     i2u251_40:
  4201   0012A8  A010               	btfss	___fladd@grs^0,0,c
  4202   0012AA  EF59  F009         	goto	i2u252_41
  4203   0012AE  EF5B  F009         	goto	i2u252_40
  4204   0012B2                     i2u252_41:
  4205   0012B2  EF61  F009         	goto	i2l4155
  4206   0012B6                     i2u252_40:
  4207   0012B6  90D8               	bcf	status,0,c
  4208   0012B8  3010               	rrcf	___fladd@grs^0,w,c
  4209   0012BA  0901               	iorlw	1
  4210   0012BC  6E10               	movwf	___fladd@grs^0,c
  4211   0012BE  EF63  F009         	goto	i2l4157
  4212   0012C2                     i2l4155:
  4213   0012C2  90D8               	bcf	status,0,c
  4214   0012C4  3210               	rrcf	___fladd@grs^0,f,c
  4215   0012C6                     i2l4157:
  4216   0012C6  A001               	btfss	___fladd@b^0,0,c
  4217   0012C8  EF68  F009         	goto	i2u253_41
  4218   0012CC  EF6A  F009         	goto	i2u253_40
  4219   0012D0                     i2u253_41:
  4220   0012D0  EF6B  F009         	goto	i2l4161
  4221   0012D4                     i2u253_40:
  4222   0012D4  8E10               	bsf	___fladd@grs^0,7,c
  4223   0012D6                     i2l4161:
  4224   0012D6  3404               	rlcf	(___fladd@b+3)^0,w,c
  4225   0012D8  3204               	rrcf	(___fladd@b+3)^0,f,c
  4226   0012DA  3203               	rrcf	(___fladd@b+2)^0,f,c
  4227   0012DC  3202               	rrcf	(___fladd@b+1)^0,f,c
  4228   0012DE  3201               	rrcf	___fladd@b^0,f,c
  4229   0012E0  2A0F               	incf	___fladd@bexp^0,f,c
  4230   0012E2  EF00  F00A         	goto	i2l4201
  4231   0012E6                     i2l4165:
  4232   0012E6  5005               	movf	___fladd@a^0,w,c
  4233   0012E8  5C01               	subwf	___fladd@b^0,w,c
  4234   0012EA  5006               	movf	(___fladd@a+1)^0,w,c
  4235   0012EC  5802               	subwfb	(___fladd@b+1)^0,w,c
  4236   0012EE  5007               	movf	(___fladd@a+2)^0,w,c
  4237   0012F0  5803               	subwfb	(___fladd@b+2)^0,w,c
  4238   0012F2  5004               	movf	(___fladd@b+3)^0,w,c
  4239   0012F4  0A80               	xorlw	128
  4240   0012F6  6E09               	movwf	??___fladd^0,c
  4241   0012F8  5008               	movf	(___fladd@a+3)^0,w,c
  4242   0012FA  0A80               	xorlw	128
  4243   0012FC  5809               	subwfb	??___fladd^0,w,c
  4244   0012FE  B0D8               	btfsc	status,0,c
  4245   001300  EF84  F009         	goto	i2u254_41
  4246   001304  EF86  F009         	goto	i2u254_40
  4247   001308                     i2u254_41:
  4248   001308  EFB1  F009         	goto	i2l4175
  4249   00130C                     i2u254_40:
  4250   00130C  5001               	movf	___fladd@b^0,w,c
  4251   00130E  5C05               	subwf	___fladd@a^0,w,c
  4252   001310  6E09               	movwf	??___fladd^0,c
  4253   001312  5002               	movf	(___fladd@b+1)^0,w,c
  4254   001314  5806               	subwfb	(___fladd@a+1)^0,w,c
  4255   001316  6E0A               	movwf	(??___fladd+1)^0,c
  4256   001318  5003               	movf	(___fladd@b+2)^0,w,c
  4257   00131A  5807               	subwfb	(___fladd@a+2)^0,w,c
  4258   00131C  6E0B               	movwf	(??___fladd+2)^0,c
  4259   00131E  5004               	movf	(___fladd@b+3)^0,w,c
  4260   001320  5808               	subwfb	(___fladd@a+3)^0,w,c
  4261   001322  6E0C               	movwf	(??___fladd+3)^0,c
  4262   001324  0EFF               	movlw	255
  4263   001326  2409               	addwf	??___fladd^0,w,c
  4264   001328  6E01               	movwf	___fladd@b^0,c
  4265   00132A  0EFF               	movlw	255
  4266   00132C  200A               	addwfc	(??___fladd+1)^0,w,c
  4267   00132E  6E02               	movwf	(___fladd@b+1)^0,c
  4268   001330  0EFF               	movlw	255
  4269   001332  200B               	addwfc	(??___fladd+2)^0,w,c
  4270   001334  6E03               	movwf	(___fladd@b+2)^0,c
  4271   001336  0EFF               	movlw	255
  4272   001338  200C               	addwfc	(??___fladd+3)^0,w,c
  4273   00133A  6E04               	movwf	(___fladd@b+3)^0,c
  4274   00133C  0E80               	movlw	128
  4275   00133E  1A0D               	xorwf	___fladd@signs^0,f,c
  4276   001340  6C10               	negf	___fladd@grs^0,c
  4277   001342  5010               	movf	___fladd@grs^0,w,c
  4278   001344  A4D8               	btfss	status,2,c
  4279   001346  EFA7  F009         	goto	i2u255_41
  4280   00134A  EFA9  F009         	goto	i2u255_40
  4281   00134E                     i2u255_41:
  4282   00134E  EFB9  F009         	goto	i2l1783
  4283   001352                     i2u255_40:
  4284   001352  0E01               	movlw	1
  4285   001354  2601               	addwf	___fladd@b^0,f,c
  4286   001356  0E00               	movlw	0
  4287   001358  2202               	addwfc	(___fladd@b+1)^0,f,c
  4288   00135A  2203               	addwfc	(___fladd@b+2)^0,f,c
  4289   00135C  2204               	addwfc	(___fladd@b+3)^0,f,c
  4290   00135E  EFB9  F009         	goto	i2l1783
  4291   001362                     i2l4175:
  4292   001362  5005               	movf	___fladd@a^0,w,c
  4293   001364  5E01               	subwf	___fladd@b^0,f,c
  4294   001366  5006               	movf	(___fladd@a+1)^0,w,c
  4295   001368  5A02               	subwfb	(___fladd@b+1)^0,f,c
  4296   00136A  5007               	movf	(___fladd@a+2)^0,w,c
  4297   00136C  5A03               	subwfb	(___fladd@b+2)^0,f,c
  4298   00136E  5008               	movf	(___fladd@a+3)^0,w,c
  4299   001370  5A04               	subwfb	(___fladd@b+3)^0,f,c
  4300   001372                     i2l1783:
  4301   001372  5001               	movf	___fladd@b^0,w,c
  4302   001374  1002               	iorwf	(___fladd@b+1)^0,w,c
  4303   001376  1003               	iorwf	(___fladd@b+2)^0,w,c
  4304   001378  1004               	iorwf	(___fladd@b+3)^0,w,c
  4305   00137A  A4D8               	btfss	status,2,c
  4306   00137C  EFC2  F009         	goto	i2u256_41
  4307   001380  EFC4  F009         	goto	i2u256_40
  4308   001384                     i2u256_41:
  4309   001384  EFF9  F009         	goto	i2l4199
  4310   001388                     i2u256_40:
  4311   001388  5010               	movf	___fladd@grs^0,w,c
  4312   00138A  A4D8               	btfss	status,2,c
  4313   00138C  EFCA  F009         	goto	i2u257_41
  4314   001390  EFCC  F009         	goto	i2u257_40
  4315   001394                     i2u257_41:
  4316   001394  EFF9  F009         	goto	i2l4199
  4317   001398                     i2u257_40:
  4318   001398  0E00               	movlw	0
  4319   00139A  6E01               	movwf	?___fladd^0,c
  4320   00139C  0E00               	movlw	0
  4321   00139E  6E02               	movwf	(?___fladd+1)^0,c
  4322   0013A0  0E00               	movlw	0
  4323   0013A2  6E03               	movwf	(?___fladd+2)^0,c
  4324   0013A4  0E00               	movlw	0
  4325   0013A6  6E04               	movwf	(?___fladd+3)^0,c
  4326   0013A8  EF94  F00A         	goto	i2l1775
  4327   0013AC                     i2l4183:
  4328   0013AC  90D8               	bcf	status,0,c
  4329   0013AE  3601               	rlcf	___fladd@b^0,f,c
  4330   0013B0  3602               	rlcf	(___fladd@b+1)^0,f,c
  4331   0013B2  3603               	rlcf	(___fladd@b+2)^0,f,c
  4332   0013B4  3604               	rlcf	(___fladd@b+3)^0,f,c
  4333   0013B6  AE10               	btfss	___fladd@grs^0,7,c
  4334   0013B8  EFE0  F009         	goto	i2u258_41
  4335   0013BC  EFE2  F009         	goto	i2u258_40
  4336   0013C0                     i2u258_41:
  4337   0013C0  EFE3  F009         	goto	i2l4189
  4338   0013C4                     i2u258_40:
  4339   0013C4  8001               	bsf	___fladd@b^0,0,c
  4340   0013C6                     i2l4189:
  4341   0013C6  A010               	btfss	___fladd@grs^0,0,c
  4342   0013C8  EFE8  F009         	goto	i2u259_41
  4343   0013CC  EFEA  F009         	goto	i2u259_40
  4344   0013D0                     i2u259_41:
  4345   0013D0  EFEE  F009         	goto	i2l4193
  4346   0013D4                     i2u259_40:
  4347   0013D4  80D8               	bsf	status,0,c
  4348   0013D6  3610               	rlcf	___fladd@grs^0,f,c
  4349   0013D8  EFF0  F009         	goto	i2l4195
  4350   0013DC                     i2l4193:
  4351   0013DC  90D8               	bcf	status,0,c
  4352   0013DE  3610               	rlcf	___fladd@grs^0,f,c
  4353   0013E0                     i2l4195:
  4354   0013E0  500F               	movf	___fladd@bexp^0,w,c
  4355   0013E2  B4D8               	btfsc	status,2,c
  4356   0013E4  EFF6  F009         	goto	i2u260_41
  4357   0013E8  EFF8  F009         	goto	i2u260_40
  4358   0013EC                     i2u260_41:
  4359   0013EC  EFF9  F009         	goto	i2l4199
  4360   0013F0                     i2u260_40:
  4361   0013F0  060F               	decf	___fladd@bexp^0,f,c
  4362   0013F2                     i2l4199:
  4363   0013F2  AE03               	btfss	(___fladd@b+2)^0,7,c
  4364   0013F4  EFFE  F009         	goto	i2u261_41
  4365   0013F8  EF00  F00A         	goto	i2u261_40
  4366   0013FC                     i2u261_41:
  4367   0013FC  EFD6  F009         	goto	i2l4183
  4368   001400                     i2u261_40:
  4369   001400                     i2l4201:
  4370   001400  0E00               	movlw	0
  4371   001402  6E0E               	movwf	___fladd@aexp^0,c
  4372   001404  AE10               	btfss	___fladd@grs^0,7,c
  4373   001406  EF07  F00A         	goto	i2u262_41
  4374   00140A  EF09  F00A         	goto	i2u262_40
  4375   00140E                     i2u262_41:
  4376   00140E  EF21  F00A         	goto	i2l1792
  4377   001412                     i2u262_40:
  4378   001412  C010  F009         	movff	___fladd@grs,??___fladd
  4379   001416  0E7F               	movlw	127
  4380   001418  1609               	andwf	??___fladd^0,f,c
  4381   00141A  B4D8               	btfsc	status,2,c
  4382   00141C  EF12  F00A         	goto	i2u263_41
  4383   001420  EF14  F00A         	goto	i2u263_40
  4384   001424                     i2u263_41:
  4385   001424  EF18  F00A         	goto	i2l1793
  4386   001428                     i2u263_40:
  4387   001428                     i2l4207:
  4388   001428  0E01               	movlw	1
  4389   00142A  6E0E               	movwf	___fladd@aexp^0,c
  4390   00142C  EF21  F00A         	goto	i2l1792
  4391   001430                     i2l1793:
  4392   001430  A001               	btfss	___fladd@b^0,0,c
  4393   001432  EF1D  F00A         	goto	i2u264_41
  4394   001436  EF1F  F00A         	goto	i2u264_40
  4395   00143A                     i2u264_41:
  4396   00143A  EF21  F00A         	goto	i2l1792
  4397   00143E                     i2u264_40:
  4398   00143E  EF14  F00A         	goto	i2l4207
  4399   001442                     i2l1792:
  4400   001442  500E               	movf	___fladd@aexp^0,w,c
  4401   001444  B4D8               	btfsc	status,2,c
  4402   001446  EF27  F00A         	goto	i2u265_41
  4403   00144A  EF29  F00A         	goto	i2u265_40
  4404   00144E                     i2u265_41:
  4405   00144E  EF54  F00A         	goto	i2l4219
  4406   001452                     i2u265_40:
  4407   001452  0E01               	movlw	1
  4408   001454  2601               	addwf	___fladd@b^0,f,c
  4409   001456  0E00               	movlw	0
  4410   001458  2202               	addwfc	(___fladd@b+1)^0,f,c
  4411   00145A  2203               	addwfc	(___fladd@b+2)^0,f,c
  4412   00145C  2204               	addwfc	(___fladd@b+3)^0,f,c
  4413   00145E  A004               	btfss	(___fladd@b+3)^0,0,c
  4414   001460  EF34  F00A         	goto	i2u266_41
  4415   001464  EF36  F00A         	goto	i2u266_40
  4416   001468                     i2u266_41:
  4417   001468  EF54  F00A         	goto	i2l4219
  4418   00146C                     i2u266_40:
  4419   00146C  C001  F009         	movff	___fladd@b,??___fladd
  4420   001470  C002  F00A         	movff	___fladd@b+1,??___fladd+1
  4421   001474  C003  F00B         	movff	___fladd@b+2,??___fladd+2
  4422   001478  C004  F00C         	movff	___fladd@b+3,??___fladd+3
  4423   00147C  340C               	rlcf	(??___fladd+3)^0,w,c
  4424   00147E  320C               	rrcf	(??___fladd+3)^0,f,c
  4425   001480  320B               	rrcf	(??___fladd+2)^0,f,c
  4426   001482  320A               	rrcf	(??___fladd+1)^0,f,c
  4427   001484  3209               	rrcf	??___fladd^0,f,c
  4428   001486  C009  F001         	movff	??___fladd,___fladd@b
  4429   00148A  C00A  F002         	movff	??___fladd+1,___fladd@b+1
  4430   00148E  C00B  F003         	movff	??___fladd+2,___fladd@b+2
  4431   001492  C00C  F004         	movff	??___fladd+3,___fladd@b+3
  4432   001496  280F               	incf	___fladd@bexp^0,w,c
  4433   001498  B4D8               	btfsc	status,2,c
  4434   00149A  EF51  F00A         	goto	i2u267_41
  4435   00149E  EF53  F00A         	goto	i2u267_40
  4436   0014A2                     i2u267_41:
  4437   0014A2  EF54  F00A         	goto	i2l4219
  4438   0014A6                     i2u267_40:
  4439   0014A6  2A0F               	incf	___fladd@bexp^0,f,c
  4440   0014A8                     i2l4219:
  4441   0014A8  280F               	incf	___fladd@bexp^0,w,c
  4442   0014AA  B4D8               	btfsc	status,2,c
  4443   0014AC  EF5A  F00A         	goto	i2u268_41
  4444   0014B0  EF5C  F00A         	goto	i2u268_40
  4445   0014B4                     i2u268_41:
  4446   0014B4  EF64  F00A         	goto	i2l4223
  4447   0014B8                     i2u268_40:
  4448   0014B8  500F               	movf	___fladd@bexp^0,w,c
  4449   0014BA  A4D8               	btfss	status,2,c
  4450   0014BC  EF62  F00A         	goto	i2u269_41
  4451   0014C0  EF64  F00A         	goto	i2u269_40
  4452   0014C4                     i2u269_41:
  4453   0014C4  EF76  F00A         	goto	i2l4227
  4454   0014C8                     i2u269_40:
  4455   0014C8                     i2l4223:
  4456   0014C8  0E00               	movlw	0
  4457   0014CA  6E01               	movwf	___fladd@b^0,c
  4458   0014CC  0E00               	movlw	0
  4459   0014CE  6E02               	movwf	(___fladd@b+1)^0,c
  4460   0014D0  0E00               	movlw	0
  4461   0014D2  6E03               	movwf	(___fladd@b+2)^0,c
  4462   0014D4  0E00               	movlw	0
  4463   0014D6  6E04               	movwf	(___fladd@b+3)^0,c
  4464   0014D8  500F               	movf	___fladd@bexp^0,w,c
  4465   0014DA  A4D8               	btfss	status,2,c
  4466   0014DC  EF72  F00A         	goto	i2u270_41
  4467   0014E0  EF74  F00A         	goto	i2u270_40
  4468   0014E4                     i2u270_41:
  4469   0014E4  EF76  F00A         	goto	i2l4227
  4470   0014E8                     i2u270_40:
  4471   0014E8  0E00               	movlw	0
  4472   0014EA  6E0D               	movwf	___fladd@signs^0,c
  4473   0014EC                     i2l4227:
  4474   0014EC  A00F               	btfss	___fladd@bexp^0,0,c
  4475   0014EE  EF7B  F00A         	goto	i2u271_41
  4476   0014F2  EF7D  F00A         	goto	i2u271_40
  4477   0014F6                     i2u271_41:
  4478   0014F6  EF80  F00A         	goto	i2l4231
  4479   0014FA                     i2u271_40:
  4480   0014FA  8E03               	bsf	(___fladd@b+2)^0,7,c
  4481   0014FC  EF81  F00A         	goto	i2l4233
  4482   001500                     i2l4231:
  4483   001500  9E03               	bcf	(___fladd@b+2)^0,7,c
  4484   001502                     i2l4233:
  4485   001502  90D8               	bcf	status,0,c
  4486   001504  300F               	rrcf	___fladd@bexp^0,w,c
  4487   001506  6E04               	movwf	(___fladd@b+3)^0,c
  4488   001508  AE0D               	btfss	___fladd@signs^0,7,c
  4489   00150A  EF89  F00A         	goto	i2u272_41
  4490   00150E  EF8B  F00A         	goto	i2u272_40
  4491   001512                     i2u272_41:
  4492   001512  EF8C  F00A         	goto	i2l4239
  4493   001516                     i2u272_40:
  4494   001516  8E04               	bsf	(___fladd@b+3)^0,7,c
  4495   001518                     i2l4239:
  4496   001518  C001  F001         	movff	___fladd@b,?___fladd
  4497   00151C  C002  F002         	movff	___fladd@b+1,?___fladd+1
  4498   001520  C003  F003         	movff	___fladd@b+2,?___fladd+2
  4499   001524  C004  F004         	movff	___fladd@b+3,?___fladd+3
  4500   001528                     i2l1775:
  4501   001528  0012               	return		;funcret
  4502   00152A                     __end_of___fladd:
  4503                           	callstack 0
  4504                           
  4505 ;; *************** function ___flmul *****************
  4506 ;; Defined at:
  4507 ;;		line 8 in file "C:\Program Files\Microchip\xc8\v2.45\pic\sources\c99\common\sprcmul.c"
  4508 ;; Parameters:    Size  Location     Type
  4509 ;;  b               4   24[COMRAM] unsigned char 
  4510 ;;  a               4   28[COMRAM] unsigned char 
  4511 ;; Auto vars:     Size  Location     Type
  4512 ;;  prod            4   43[COMRAM] struct .
  4513 ;;  grs             4   37[COMRAM] unsigned long 
  4514 ;;  temp            2   47[COMRAM] struct .
  4515 ;;  bexp            1   42[COMRAM] unsigned char 
  4516 ;;  aexp            1   41[COMRAM] unsigned char 
  4517 ;;  sign            1   36[COMRAM] unsigned char 
  4518 ;; Return value:  Size  Location     Type
  4519 ;;                  4   24[COMRAM] unsigned char 
  4520 ;; Registers used:
  4521 ;;		wreg, status,2, status,0, prodl, prodh
  4522 ;; Tracked objects:
  4523 ;;		On entry : 0/0
  4524 ;;		On exit  : 0/0
  4525 ;;		Unchanged: 0/0
  4526 ;; Data sizes:     COMRAM   BANK0   BANK1   BANK2   BANK3   BANK4   BANK5   BANK6   BANK7   BANK8   BANK9  BANK10  BANK1
      +1  BANK12  BANK13  BANK14  BANK15
  4527 ;;      Params:         8       0       0       0       0       0       0       0       0       0       0       0       
      +0       0       0       0       0
  4528 ;;      Locals:        13       0       0       0       0       0       0       0       0       0       0       0       
      +0       0       0       0       0
  4529 ;;      Temps:          4       0       0       0       0       0       0       0       0       0       0       0       
      +0       0       0       0       0
  4530 ;;      Totals:        25       0       0       0       0       0       0       0       0       0       0       0       
      +0       0       0       0       0
  4531 ;;Total ram usage:       25 bytes
  4532 ;; Hardware stack levels used: 1
  4533 ;; This function calls:
  4534 ;;		Nothing
  4535 ;; This function is called by:
  4536 ;;		_map
  4537 ;;		_INTERRUPT_InterruptManager
  4538 ;; This function uses a non-reentrant model
  4539 ;;
  4540                           
  4541                           	psect	text31
  4542   00152A                     __ptext31:
  4543                           	callstack 0
  4544   00152A                     ___flmul:
  4545                           	callstack 25
  4546   00152A  501C               	movf	(___flmul@b+3)^0,w,c
  4547   00152C  0B80               	andlw	128
  4548   00152E  6E25               	movwf	___flmul@sign^0,c
  4549   001530  501C               	movf	(___flmul@b+3)^0,w,c
  4550   001532  241C               	addwf	(___flmul@b+3)^0,w,c
  4551   001534  6E2B               	movwf	___flmul@bexp^0,c
  4552   001536  AE1B               	btfss	(___flmul@b+2)^0,7,c
  4553   001538  EFA0  F00A         	goto	i2u307_41
  4554   00153C  EFA2  F00A         	goto	i2u307_40
  4555   001540                     i2u307_41:
  4556   001540  EFA3  F00A         	goto	i2l4519
  4557   001544                     i2u307_40:
  4558   001544  802B               	bsf	___flmul@bexp^0,0,c
  4559   001546                     i2l4519:
  4560   001546  502B               	movf	___flmul@bexp^0,w,c
  4561   001548  B4D8               	btfsc	status,2,c
  4562   00154A  EFA9  F00A         	goto	i2u308_41
  4563   00154E  EFAB  F00A         	goto	i2u308_40
  4564   001552                     i2u308_41:
  4565   001552  EFBE  F00A         	goto	i2l4527
  4566   001556                     i2u308_40:
  4567   001556  282B               	incf	___flmul@bexp^0,w,c
  4568   001558  A4D8               	btfss	status,2,c
  4569   00155A  EFB1  F00A         	goto	i2u309_41
  4570   00155E  EFB3  F00A         	goto	i2u309_40
  4571   001562                     i2u309_41:
  4572   001562  EFBB  F00A         	goto	i2l4525
  4573   001566                     i2u309_40:
  4574   001566  0E00               	movlw	0
  4575   001568  6E19               	movwf	___flmul@b^0,c
  4576   00156A  0E00               	movlw	0
  4577   00156C  6E1A               	movwf	(___flmul@b+1)^0,c
  4578   00156E  0E00               	movlw	0
  4579   001570  6E1B               	movwf	(___flmul@b+2)^0,c
  4580   001572  0E00               	movlw	0
  4581   001574  6E1C               	movwf	(___flmul@b+3)^0,c
  4582   001576                     i2l4525:
  4583   001576  8E1B               	bsf	(___flmul@b+2)^0,7,c
  4584   001578  EFC6  F00A         	goto	i2l4529
  4585   00157C                     i2l4527:
  4586   00157C  0E00               	movlw	0
  4587   00157E  6E19               	movwf	___flmul@b^0,c
  4588   001580  0E00               	movlw	0
  4589   001582  6E1A               	movwf	(___flmul@b+1)^0,c
  4590   001584  0E00               	movlw	0
  4591   001586  6E1B               	movwf	(___flmul@b+2)^0,c
  4592   001588  0E00               	movlw	0
  4593   00158A  6E1C               	movwf	(___flmul@b+3)^0,c
  4594   00158C                     i2l4529:
  4595   00158C  5020               	movf	(___flmul@a+3)^0,w,c
  4596   00158E  0B80               	andlw	128
  4597   001590  1A25               	xorwf	___flmul@sign^0,f,c
  4598   001592  5020               	movf	(___flmul@a+3)^0,w,c
  4599   001594  2420               	addwf	(___flmul@a+3)^0,w,c
  4600   001596  6E2A               	movwf	___flmul@aexp^0,c
  4601   001598  AE1F               	btfss	(___flmul@a+2)^0,7,c
  4602   00159A  EFD1  F00A         	goto	i2u310_41
  4603   00159E  EFD3  F00A         	goto	i2u310_40
  4604   0015A2                     i2u310_41:
  4605   0015A2  EFD4  F00A         	goto	i2l4537
  4606   0015A6                     i2u310_40:
  4607   0015A6  802A               	bsf	___flmul@aexp^0,0,c
  4608   0015A8                     i2l4537:
  4609   0015A8  502A               	movf	___flmul@aexp^0,w,c
  4610   0015AA  B4D8               	btfsc	status,2,c
  4611   0015AC  EFDA  F00A         	goto	i2u311_41
  4612   0015B0  EFDC  F00A         	goto	i2u311_40
  4613   0015B4                     i2u311_41:
  4614   0015B4  EFEF  F00A         	goto	i2l4545
  4615   0015B8                     i2u311_40:
  4616   0015B8  282A               	incf	___flmul@aexp^0,w,c
  4617   0015BA  A4D8               	btfss	status,2,c
  4618   0015BC  EFE2  F00A         	goto	i2u312_41
  4619   0015C0  EFE4  F00A         	goto	i2u312_40
  4620   0015C4                     i2u312_41:
  4621   0015C4  EFEC  F00A         	goto	i2l4543
  4622   0015C8                     i2u312_40:
  4623   0015C8  0E00               	movlw	0
  4624   0015CA  6E1D               	movwf	___flmul@a^0,c
  4625   0015CC  0E00               	movlw	0
  4626   0015CE  6E1E               	movwf	(___flmul@a+1)^0,c
  4627   0015D0  0E00               	movlw	0
  4628   0015D2  6E1F               	movwf	(___flmul@a+2)^0,c
  4629   0015D4  0E00               	movlw	0
  4630   0015D6  6E20               	movwf	(___flmul@a+3)^0,c
  4631   0015D8                     i2l4543:
  4632   0015D8  8E1F               	bsf	(___flmul@a+2)^0,7,c
  4633   0015DA  EFF7  F00A         	goto	i2l1852
  4634   0015DE                     i2l4545:
  4635   0015DE  0E00               	movlw	0
  4636   0015E0  6E1D               	movwf	___flmul@a^0,c
  4637   0015E2  0E00               	movlw	0
  4638   0015E4  6E1E               	movwf	(___flmul@a+1)^0,c
  4639   0015E6  0E00               	movlw	0
  4640   0015E8  6E1F               	movwf	(___flmul@a+2)^0,c
  4641   0015EA  0E00               	movlw	0
  4642   0015EC  6E20               	movwf	(___flmul@a+3)^0,c
  4643   0015EE                     i2l1852:
  4644   0015EE  502A               	movf	___flmul@aexp^0,w,c
  4645   0015F0  B4D8               	btfsc	status,2,c
  4646   0015F2  EFFD  F00A         	goto	i2u313_41
  4647   0015F6  EFFF  F00A         	goto	i2u313_40
  4648   0015FA                     i2u313_41:
  4649   0015FA  EF07  F00B         	goto	i2l4549
  4650   0015FE                     i2u313_40:
  4651   0015FE  502B               	movf	___flmul@bexp^0,w,c
  4652   001600  A4D8               	btfss	status,2,c
  4653   001602  EF05  F00B         	goto	i2u314_41
  4654   001606  EF07  F00B         	goto	i2u314_40
  4655   00160A                     i2u314_41:
  4656   00160A  EF11  F00B         	goto	i2l4553
  4657   00160E                     i2u314_40:
  4658   00160E                     i2l4549:
  4659   00160E  0E00               	movlw	0
  4660   001610  6E19               	movwf	?___flmul^0,c
  4661   001612  0E00               	movlw	0
  4662   001614  6E1A               	movwf	(?___flmul+1)^0,c
  4663   001616  0E00               	movlw	0
  4664   001618  6E1B               	movwf	(?___flmul+2)^0,c
  4665   00161A  0E00               	movlw	0
  4666   00161C  6E1C               	movwf	(?___flmul+3)^0,c
  4667   00161E  EFBB  F00C         	goto	i2l1856
  4668   001622                     i2l4553:
  4669   001622  501F               	movf	(___flmul@a+2)^0,w,c
  4670   001624  0219               	mulwf	___flmul@b^0,c
  4671   001626  006F FFCC  F030    	movff	prodl,___flmul@temp
  4672   00162C  006F FFD0  F031    	movff	prodh,___flmul@temp+1
  4673   001632  5030               	movf	___flmul@temp^0,w,c
  4674   001634  6E26               	movwf	___flmul@grs^0,c
  4675   001636  6A27               	clrf	(___flmul@grs+1)^0,c
  4676   001638  6A28               	clrf	(___flmul@grs+2)^0,c
  4677   00163A  6A29               	clrf	(___flmul@grs+3)^0,c
  4678   00163C  5031               	movf	(___flmul@temp+1)^0,w,c
  4679   00163E  6E2C               	movwf	___flmul@prod^0,c
  4680   001640  6A2D               	clrf	(___flmul@prod+1)^0,c
  4681   001642  6A2E               	clrf	(___flmul@prod+2)^0,c
  4682   001644  6A2F               	clrf	(___flmul@prod+3)^0,c
  4683   001646  501E               	movf	(___flmul@a+1)^0,w,c
  4684   001648  021A               	mulwf	(___flmul@b+1)^0,c
  4685   00164A  006F FFCC  F030    	movff	prodl,___flmul@temp
  4686   001650  006F FFD0  F031    	movff	prodh,___flmul@temp+1
  4687   001656  5030               	movf	___flmul@temp^0,w,c
  4688   001658  2626               	addwf	___flmul@grs^0,f,c
  4689   00165A  0E00               	movlw	0
  4690   00165C  2227               	addwfc	(___flmul@grs+1)^0,f,c
  4691   00165E  2228               	addwfc	(___flmul@grs+2)^0,f,c
  4692   001660  2229               	addwfc	(___flmul@grs+3)^0,f,c
  4693   001662  5031               	movf	(___flmul@temp+1)^0,w,c
  4694   001664  262C               	addwf	___flmul@prod^0,f,c
  4695   001666  0E00               	movlw	0
  4696   001668  222D               	addwfc	(___flmul@prod+1)^0,f,c
  4697   00166A  222E               	addwfc	(___flmul@prod+2)^0,f,c
  4698   00166C  222F               	addwfc	(___flmul@prod+3)^0,f,c
  4699   00166E  501D               	movf	___flmul@a^0,w,c
  4700   001670  021B               	mulwf	(___flmul@b+2)^0,c
  4701   001672  006F FFCC  F030    	movff	prodl,___flmul@temp
  4702   001678  006F FFD0  F031    	movff	prodh,___flmul@temp+1
  4703   00167E  5030               	movf	___flmul@temp^0,w,c
  4704   001680  2626               	addwf	___flmul@grs^0,f,c
  4705   001682  0E00               	movlw	0
  4706   001684  2227               	addwfc	(___flmul@grs+1)^0,f,c
  4707   001686  2228               	addwfc	(___flmul@grs+2)^0,f,c
  4708   001688  2229               	addwfc	(___flmul@grs+3)^0,f,c
  4709   00168A  5031               	movf	(___flmul@temp+1)^0,w,c
  4710   00168C  262C               	addwf	___flmul@prod^0,f,c
  4711   00168E  0E00               	movlw	0
  4712   001690  222D               	addwfc	(___flmul@prod+1)^0,f,c
  4713   001692  222E               	addwfc	(___flmul@prod+2)^0,f,c
  4714   001694  222F               	addwfc	(___flmul@prod+3)^0,f,c
  4715   001696  C028  F029         	movff	___flmul@grs+2,___flmul@grs+3
  4716   00169A  C027  F028         	movff	___flmul@grs+1,___flmul@grs+2
  4717   00169E  C026  F027         	movff	___flmul@grs,___flmul@grs+1
  4718   0016A2  6A26               	clrf	___flmul@grs^0,c
  4719   0016A4  501D               	movf	___flmul@a^0,w,c
  4720   0016A6  021A               	mulwf	(___flmul@b+1)^0,c
  4721   0016A8  006F FFCC  F030    	movff	prodl,___flmul@temp
  4722   0016AE  006F FFD0  F031    	movff	prodh,___flmul@temp+1
  4723   0016B4  5030               	movf	___flmul@temp^0,w,c
  4724   0016B6  2626               	addwf	___flmul@grs^0,f,c
  4725   0016B8  5031               	movf	(___flmul@temp+1)^0,w,c
  4726   0016BA  2227               	addwfc	(___flmul@grs+1)^0,f,c
  4727   0016BC  0E00               	movlw	0
  4728   0016BE  2228               	addwfc	(___flmul@grs+2)^0,f,c
  4729   0016C0  0E00               	movlw	0
  4730   0016C2  2229               	addwfc	(___flmul@grs+3)^0,f,c
  4731   0016C4  501E               	movf	(___flmul@a+1)^0,w,c
  4732   0016C6  0219               	mulwf	___flmul@b^0,c
  4733   0016C8  006F FFCC  F030    	movff	prodl,___flmul@temp
  4734   0016CE  006F FFD0  F031    	movff	prodh,___flmul@temp+1
  4735   0016D4  5030               	movf	___flmul@temp^0,w,c
  4736   0016D6  2626               	addwf	___flmul@grs^0,f,c
  4737   0016D8  5031               	movf	(___flmul@temp+1)^0,w,c
  4738   0016DA  2227               	addwfc	(___flmul@grs+1)^0,f,c
  4739   0016DC  0E00               	movlw	0
  4740   0016DE  2228               	addwfc	(___flmul@grs+2)^0,f,c
  4741   0016E0  0E00               	movlw	0
  4742   0016E2  2229               	addwfc	(___flmul@grs+3)^0,f,c
  4743   0016E4  C028  F029         	movff	___flmul@grs+2,___flmul@grs+3
  4744   0016E8  C027  F028         	movff	___flmul@grs+1,___flmul@grs+2
  4745   0016EC  C026  F027         	movff	___flmul@grs,___flmul@grs+1
  4746   0016F0  6A26               	clrf	___flmul@grs^0,c
  4747   0016F2  501D               	movf	___flmul@a^0,w,c
  4748   0016F4  0219               	mulwf	___flmul@b^0,c
  4749   0016F6  006F FFCC  F030    	movff	prodl,___flmul@temp
  4750   0016FC  006F FFD0  F031    	movff	prodh,___flmul@temp+1
  4751   001702  5030               	movf	___flmul@temp^0,w,c
  4752   001704  2626               	addwf	___flmul@grs^0,f,c
  4753   001706  5031               	movf	(___flmul@temp+1)^0,w,c
  4754   001708  2227               	addwfc	(___flmul@grs+1)^0,f,c
  4755   00170A  0E00               	movlw	0
  4756   00170C  2228               	addwfc	(___flmul@grs+2)^0,f,c
  4757   00170E  0E00               	movlw	0
  4758   001710  2229               	addwfc	(___flmul@grs+3)^0,f,c
  4759   001712  501F               	movf	(___flmul@a+2)^0,w,c
  4760   001714  021A               	mulwf	(___flmul@b+1)^0,c
  4761   001716  006F FFCC  F030    	movff	prodl,___flmul@temp
  4762   00171C  006F FFD0  F031    	movff	prodh,___flmul@temp+1
  4763   001722  5030               	movf	___flmul@temp^0,w,c
  4764   001724  262C               	addwf	___flmul@prod^0,f,c
  4765   001726  5031               	movf	(___flmul@temp+1)^0,w,c
  4766   001728  222D               	addwfc	(___flmul@prod+1)^0,f,c
  4767   00172A  0E00               	movlw	0
  4768   00172C  222E               	addwfc	(___flmul@prod+2)^0,f,c
  4769   00172E  0E00               	movlw	0
  4770   001730  222F               	addwfc	(___flmul@prod+3)^0,f,c
  4771   001732  501E               	movf	(___flmul@a+1)^0,w,c
  4772   001734  021B               	mulwf	(___flmul@b+2)^0,c
  4773   001736  006F FFCC  F030    	movff	prodl,___flmul@temp
  4774   00173C  006F FFD0  F031    	movff	prodh,___flmul@temp+1
  4775   001742  5030               	movf	___flmul@temp^0,w,c
  4776   001744  262C               	addwf	___flmul@prod^0,f,c
  4777   001746  5031               	movf	(___flmul@temp+1)^0,w,c
  4778   001748  222D               	addwfc	(___flmul@prod+1)^0,f,c
  4779   00174A  0E00               	movlw	0
  4780   00174C  222E               	addwfc	(___flmul@prod+2)^0,f,c
  4781   00174E  0E00               	movlw	0
  4782   001750  222F               	addwfc	(___flmul@prod+3)^0,f,c
  4783   001752  501F               	movf	(___flmul@a+2)^0,w,c
  4784   001754  021B               	mulwf	(___flmul@b+2)^0,c
  4785   001756  006F FFCC  F030    	movff	prodl,___flmul@temp
  4786   00175C  006F FFD0  F031    	movff	prodh,___flmul@temp+1
  4787   001762  5030               	movf	___flmul@temp^0,w,c
  4788   001764  6E21               	movwf	??___flmul^0,c
  4789   001766  5031               	movf	(___flmul@temp+1)^0,w,c
  4790   001768  6E22               	movwf	(??___flmul+1)^0,c
  4791   00176A  6A23               	clrf	(??___flmul+2)^0,c
  4792   00176C  6A24               	clrf	(??___flmul+3)^0,c
  4793   00176E  C023  F024         	movff	??___flmul+2,??___flmul+3
  4794   001772  C022  F023         	movff	??___flmul+1,??___flmul+2
  4795   001776  C021  F022         	movff	??___flmul,??___flmul+1
  4796   00177A  6A21               	clrf	??___flmul^0,c
  4797   00177C  5021               	movf	??___flmul^0,w,c
  4798   00177E  262C               	addwf	___flmul@prod^0,f,c
  4799   001780  5022               	movf	(??___flmul+1)^0,w,c
  4800   001782  222D               	addwfc	(___flmul@prod+1)^0,f,c
  4801   001784  5023               	movf	(??___flmul+2)^0,w,c
  4802   001786  222E               	addwfc	(___flmul@prod+2)^0,f,c
  4803   001788  5024               	movf	(??___flmul+3)^0,w,c
  4804   00178A  222F               	addwfc	(___flmul@prod+3)^0,f,c
  4805   00178C  C026  F021         	movff	___flmul@grs,??___flmul
  4806   001790  C027  F022         	movff	___flmul@grs+1,??___flmul+1
  4807   001794  C028  F023         	movff	___flmul@grs+2,??___flmul+2
  4808   001798  C029  F024         	movff	___flmul@grs+3,??___flmul+3
  4809   00179C  0E19               	movlw	25
  4810   00179E  EFD6  F00B         	goto	i2u315_40
  4811   0017A2                     i2u315_45:
  4812   0017A2  90D8               	bcf	status,0,c
  4813   0017A4  3224               	rrcf	(??___flmul+3)^0,f,c
  4814   0017A6  3223               	rrcf	(??___flmul+2)^0,f,c
  4815   0017A8  3222               	rrcf	(??___flmul+1)^0,f,c
  4816   0017AA  3221               	rrcf	??___flmul^0,f,c
  4817   0017AC                     i2u315_40:
  4818   0017AC  2EE8               	decfsz	wreg,f,c
  4819   0017AE  EFD1  F00B         	goto	i2u315_45
  4820   0017B2  5021               	movf	??___flmul^0,w,c
  4821   0017B4  262C               	addwf	___flmul@prod^0,f,c
  4822   0017B6  5022               	movf	(??___flmul+1)^0,w,c
  4823   0017B8  222D               	addwfc	(___flmul@prod+1)^0,f,c
  4824   0017BA  5023               	movf	(??___flmul+2)^0,w,c
  4825   0017BC  222E               	addwfc	(___flmul@prod+2)^0,f,c
  4826   0017BE  5024               	movf	(??___flmul+3)^0,w,c
  4827   0017C0  222F               	addwfc	(___flmul@prod+3)^0,f,c
  4828   0017C2  C028  F029         	movff	___flmul@grs+2,___flmul@grs+3
  4829   0017C6  C027  F028         	movff	___flmul@grs+1,___flmul@grs+2
  4830   0017CA  C026  F027         	movff	___flmul@grs,___flmul@grs+1
  4831   0017CE  6A26               	clrf	___flmul@grs^0,c
  4832   0017D0  502A               	movf	___flmul@aexp^0,w,c
  4833   0017D2  C02B  F021         	movff	___flmul@bexp,??___flmul
  4834   0017D6  6A22               	clrf	(??___flmul+1)^0,c
  4835   0017D8  2621               	addwf	??___flmul^0,f,c
  4836   0017DA  0E00               	movlw	0
  4837   0017DC  2222               	addwfc	(??___flmul+1)^0,f,c
  4838   0017DE  0E82               	movlw	130
  4839   0017E0  2421               	addwf	??___flmul^0,w,c
  4840   0017E2  6E30               	movwf	___flmul@temp^0,c
  4841   0017E4  0EFF               	movlw	255
  4842   0017E6  2022               	addwfc	(??___flmul+1)^0,w,c
  4843   0017E8  6E31               	movwf	(___flmul@temp+1)^0,c
  4844   0017EA  EF0C  F00C         	goto	i2l4601
  4845   0017EE                     i2l4595:
  4846   0017EE  90D8               	bcf	status,0,c
  4847   0017F0  362C               	rlcf	___flmul@prod^0,f,c
  4848   0017F2  362D               	rlcf	(___flmul@prod+1)^0,f,c
  4849   0017F4  362E               	rlcf	(___flmul@prod+2)^0,f,c
  4850   0017F6  362F               	rlcf	(___flmul@prod+3)^0,f,c
  4851   0017F8  AE29               	btfss	(___flmul@grs+3)^0,7,c
  4852   0017FA  EF01  F00C         	goto	i2u316_41
  4853   0017FE  EF03  F00C         	goto	i2u316_40
  4854   001802                     i2u316_41:
  4855   001802  EF04  F00C         	goto	i2l1859
  4856   001806                     i2u316_40:
  4857   001806  802C               	bsf	___flmul@prod^0,0,c
  4858   001808                     i2l1859:
  4859   001808  90D8               	bcf	status,0,c
  4860   00180A  3626               	rlcf	___flmul@grs^0,f,c
  4861   00180C  3627               	rlcf	(___flmul@grs+1)^0,f,c
  4862   00180E  3628               	rlcf	(___flmul@grs+2)^0,f,c
  4863   001810  3629               	rlcf	(___flmul@grs+3)^0,f,c
  4864   001812  0630               	decf	___flmul@temp^0,f,c
  4865   001814  A0D8               	btfss	status,0,c
  4866   001816  0631               	decf	(___flmul@temp+1)^0,f,c
  4867   001818                     i2l4601:
  4868   001818  AE2E               	btfss	(___flmul@prod+2)^0,7,c
  4869   00181A  EF11  F00C         	goto	i2u317_41
  4870   00181E  EF13  F00C         	goto	i2u317_40
  4871   001822                     i2u317_41:
  4872   001822  EFF7  F00B         	goto	i2l4595
  4873   001826                     i2u317_40:
  4874   001826  0E00               	movlw	0
  4875   001828  6E2A               	movwf	___flmul@aexp^0,c
  4876   00182A  AE29               	btfss	(___flmul@grs+3)^0,7,c
  4877   00182C  EF1A  F00C         	goto	i2u318_41
  4878   001830  EF1C  F00C         	goto	i2u318_40
  4879   001834                     i2u318_41:
  4880   001834  EF40  F00C         	goto	i2l1861
  4881   001838                     i2u318_40:
  4882   001838  0EFF               	movlw	255
  4883   00183A  1426               	andwf	___flmul@grs^0,w,c
  4884   00183C  6E21               	movwf	??___flmul^0,c
  4885   00183E  0EFF               	movlw	255
  4886   001840  1427               	andwf	(___flmul@grs+1)^0,w,c
  4887   001842  6E22               	movwf	(??___flmul+1)^0,c
  4888   001844  0EFF               	movlw	255
  4889   001846  1428               	andwf	(___flmul@grs+2)^0,w,c
  4890   001848  6E23               	movwf	(??___flmul+2)^0,c
  4891   00184A  0E7F               	movlw	127
  4892   00184C  1429               	andwf	(___flmul@grs+3)^0,w,c
  4893   00184E  6E24               	movwf	(??___flmul+3)^0,c
  4894   001850  5021               	movf	??___flmul^0,w,c
  4895   001852  1022               	iorwf	(??___flmul+1)^0,w,c
  4896   001854  1023               	iorwf	(??___flmul+2)^0,w,c
  4897   001856  1024               	iorwf	(??___flmul+3)^0,w,c
  4898   001858  B4D8               	btfsc	status,2,c
  4899   00185A  EF31  F00C         	goto	i2u319_41
  4900   00185E  EF33  F00C         	goto	i2u319_40
  4901   001862                     i2u319_41:
  4902   001862  EF37  F00C         	goto	i2l1862
  4903   001866                     i2u319_40:
  4904   001866                     i2l4609:
  4905   001866  0E01               	movlw	1
  4906   001868  6E2A               	movwf	___flmul@aexp^0,c
  4907   00186A  EF40  F00C         	goto	i2l1861
  4908   00186E                     i2l1862:
  4909   00186E  A02C               	btfss	___flmul@prod^0,0,c
  4910   001870  EF3C  F00C         	goto	i2u320_41
  4911   001874  EF3E  F00C         	goto	i2u320_40
  4912   001878                     i2u320_41:
  4913   001878  EF40  F00C         	goto	i2l1861
  4914   00187C                     i2u320_40:
  4915   00187C  EF33  F00C         	goto	i2l4609
  4916   001880                     i2l1861:
  4917   001880  502A               	movf	___flmul@aexp^0,w,c
  4918   001882  B4D8               	btfsc	status,2,c
  4919   001884  EF46  F00C         	goto	i2u321_41
  4920   001888  EF48  F00C         	goto	i2u321_40
  4921   00188C                     i2u321_41:
  4922   00188C  EF6C  F00C         	goto	i2l4621
  4923   001890                     i2u321_40:
  4924   001890  0E01               	movlw	1
  4925   001892  262C               	addwf	___flmul@prod^0,f,c
  4926   001894  0E00               	movlw	0
  4927   001896  222D               	addwfc	(___flmul@prod+1)^0,f,c
  4928   001898  222E               	addwfc	(___flmul@prod+2)^0,f,c
  4929   00189A  222F               	addwfc	(___flmul@prod+3)^0,f,c
  4930   00189C  A02F               	btfss	(___flmul@prod+3)^0,0,c
  4931   00189E  EF53  F00C         	goto	i2u322_41
  4932   0018A2  EF55  F00C         	goto	i2u322_40
  4933   0018A6                     i2u322_41:
  4934   0018A6  EF6C  F00C         	goto	i2l4621
  4935   0018AA                     i2u322_40:
  4936   0018AA  C02C  F021         	movff	___flmul@prod,??___flmul
  4937   0018AE  C02D  F022         	movff	___flmul@prod+1,??___flmul+1
  4938   0018B2  C02E  F023         	movff	___flmul@prod+2,??___flmul+2
  4939   0018B6  C02F  F024         	movff	___flmul@prod+3,??___flmul+3
  4940   0018BA  3424               	rlcf	(??___flmul+3)^0,w,c
  4941   0018BC  3224               	rrcf	(??___flmul+3)^0,f,c
  4942   0018BE  3223               	rrcf	(??___flmul+2)^0,f,c
  4943   0018C0  3222               	rrcf	(??___flmul+1)^0,f,c
  4944   0018C2  3221               	rrcf	??___flmul^0,f,c
  4945   0018C4  C021  F02C         	movff	??___flmul,___flmul@prod
  4946   0018C8  C022  F02D         	movff	??___flmul+1,___flmul@prod+1
  4947   0018CC  C023  F02E         	movff	??___flmul+2,___flmul@prod+2
  4948   0018D0  C024  F02F         	movff	??___flmul+3,___flmul@prod+3
  4949   0018D4  4A30               	infsnz	___flmul@temp^0,f,c
  4950   0018D6  2A31               	incf	(___flmul@temp+1)^0,f,c
  4951   0018D8                     i2l4621:
  4952   0018D8  BE31               	btfsc	(___flmul@temp+1)^0,7,c
  4953   0018DA  EF77  F00C         	goto	i2u323_41
  4954   0018DE  5031               	movf	(___flmul@temp+1)^0,w,c
  4955   0018E0  E108               	bnz	i2u323_40
  4956   0018E2  2830               	incf	___flmul@temp^0,w,c
  4957   0018E4  A0D8               	btfss	status,0,c
  4958   0018E6  EF77  F00C         	goto	i2u323_41
  4959   0018EA  EF79  F00C         	goto	i2u323_40
  4960   0018EE                     i2u323_41:
  4961   0018EE  EF83  F00C         	goto	i2l4625
  4962   0018F2                     i2u323_40:
  4963   0018F2  0E00               	movlw	0
  4964   0018F4  6E2C               	movwf	___flmul@prod^0,c
  4965   0018F6  0E00               	movlw	0
  4966   0018F8  6E2D               	movwf	(___flmul@prod+1)^0,c
  4967   0018FA  0E80               	movlw	128
  4968   0018FC  6E2E               	movwf	(___flmul@prod+2)^0,c
  4969   0018FE  0E7F               	movlw	127
  4970   001900  6E2F               	movwf	(___flmul@prod+3)^0,c
  4971   001902  EFB1  F00C         	goto	i2l4637
  4972   001906                     i2l4625:
  4973   001906  BE31               	btfsc	(___flmul@temp+1)^0,7,c
  4974   001908  EF90  F00C         	goto	i2u324_40
  4975   00190C  5031               	movf	(___flmul@temp+1)^0,w,c
  4976   00190E  E106               	bnz	i2u324_41
  4977   001910  0430               	decf	___flmul@temp^0,w,c
  4978   001912  B0D8               	btfsc	status,0,c
  4979   001914  EF8E  F00C         	goto	i2u324_41
  4980   001918  EF90  F00C         	goto	i2u324_40
  4981   00191C                     i2u324_41:
  4982   00191C  EF9C  F00C         	goto	i2l1869
  4983   001920                     i2u324_40:
  4984   001920  0E00               	movlw	0
  4985   001922  6E2C               	movwf	___flmul@prod^0,c
  4986   001924  0E00               	movlw	0
  4987   001926  6E2D               	movwf	(___flmul@prod+1)^0,c
  4988   001928  0E00               	movlw	0
  4989   00192A  6E2E               	movwf	(___flmul@prod+2)^0,c
  4990   00192C  0E00               	movlw	0
  4991   00192E  6E2F               	movwf	(___flmul@prod+3)^0,c
  4992   001930  0E00               	movlw	0
  4993   001932  6E25               	movwf	___flmul@sign^0,c
  4994   001934  EFB1  F00C         	goto	i2l4637
  4995   001938                     i2l1869:
  4996   001938  C030  F02B         	movff	___flmul@temp,___flmul@bexp
  4997   00193C  0EFF               	movlw	255
  4998   00193E  162C               	andwf	___flmul@prod^0,f,c
  4999   001940  0EFF               	movlw	255
  5000   001942  162D               	andwf	(___flmul@prod+1)^0,f,c
  5001   001944  0E7F               	movlw	127
  5002   001946  162E               	andwf	(___flmul@prod+2)^0,f,c
  5003   001948  0E00               	movlw	0
  5004   00194A  162F               	andwf	(___flmul@prod+3)^0,f,c
  5005   00194C  A02B               	btfss	___flmul@bexp^0,0,c
  5006   00194E  EFAB  F00C         	goto	i2u325_41
  5007   001952  EFAD  F00C         	goto	i2u325_40
  5008   001956                     i2u325_41:
  5009   001956  EFAE  F00C         	goto	i2l4635
  5010   00195A                     i2u325_40:
  5011   00195A  8E2E               	bsf	(___flmul@prod+2)^0,7,c
  5012   00195C                     i2l4635:
  5013   00195C  90D8               	bcf	status,0,c
  5014   00195E  302B               	rrcf	___flmul@bexp^0,w,c
  5015   001960  6E2F               	movwf	(___flmul@prod+3)^0,c
  5016   001962                     i2l4637:
  5017   001962  5025               	movf	___flmul@sign^0,w,c
  5018   001964  122F               	iorwf	(___flmul@prod+3)^0,f,c
  5019   001966  C02C  F019         	movff	___flmul@prod,?___flmul
  5020   00196A  C02D  F01A         	movff	___flmul@prod+1,?___flmul+1
  5021   00196E  C02E  F01B         	movff	___flmul@prod+2,?___flmul+2
  5022   001972  C02F  F01C         	movff	___flmul@prod+3,?___flmul+3
  5023   001976                     i2l1856:
  5024   001976  0012               	return		;funcret
  5025   001978                     __end_of___flmul:
  5026                           	callstack 0
  5027                           
  5028 ;; *************** function ___fldiv *****************
  5029 ;; Defined at:
  5030 ;;		line 11 in file "C:\Program Files\Microchip\xc8\v2.45\pic\sources\c99\common\sprcdiv.c"
  5031 ;; Parameters:    Size  Location     Type
  5032 ;;  b               4   49[COMRAM] unsigned char 
  5033 ;;  a               4   53[COMRAM] unsigned char 
  5034 ;; Auto vars:     Size  Location     Type
  5035 ;;  grs             4   68[COMRAM] unsigned long 
  5036 ;;  rem             4   61[COMRAM] unsigned long 
  5037 ;;  new_exp         2   66[COMRAM] short 
  5038 ;;  aexp            1   73[COMRAM] unsigned char 
  5039 ;;  bexp            1   72[COMRAM] unsigned char 
  5040 ;;  sign            1   65[COMRAM] unsigned char 
  5041 ;; Return value:  Size  Location     Type
  5042 ;;                  4   49[COMRAM] unsigned char 
  5043 ;; Registers used:
  5044 ;;		wreg, status,2, status,0
  5045 ;; Tracked objects:
  5046 ;;		On entry : 0/0
  5047 ;;		On exit  : 0/0
  5048 ;;		Unchanged: 0/0
  5049 ;; Data sizes:     COMRAM   BANK0   BANK1   BANK2   BANK3   BANK4   BANK5   BANK6   BANK7   BANK8   BANK9  BANK10  BANK1
      +1  BANK12  BANK13  BANK14  BANK15
  5050 ;;      Params:         8       0       0       0       0       0       0       0       0       0       0       0       
      +0       0       0       0       0
  5051 ;;      Locals:        13       0       0       0       0       0       0       0       0       0       0       0       
      +0       0       0       0       0
  5052 ;;      Temps:          4       0       0       0       0       0       0       0       0       0       0       0       
      +0       0       0       0       0
  5053 ;;      Totals:        25       0       0       0       0       0       0       0       0       0       0       0       
      +0       0       0       0       0
  5054 ;;Total ram usage:       25 bytes
  5055 ;; Hardware stack levels used: 1
  5056 ;; This function calls:
  5057 ;;		Nothing
  5058 ;; This function is called by:
  5059 ;;		_map
  5060 ;;		_INTERRUPT_InterruptManager
  5061 ;; This function uses a non-reentrant model
  5062 ;;
  5063                           
  5064                           	psect	text32
  5065   001978                     __ptext32:
  5066                           	callstack 0
  5067   001978                     ___fldiv:
  5068                           	callstack 25
  5069   001978  5035               	movf	(___fldiv@b+3)^0,w,c
  5070   00197A  0B80               	andlw	128
  5071   00197C  6E42               	movwf	___fldiv@sign^0,c
  5072   00197E  5035               	movf	(___fldiv@b+3)^0,w,c
  5073   001980  2435               	addwf	(___fldiv@b+3)^0,w,c
  5074   001982  6E49               	movwf	___fldiv@bexp^0,c
  5075   001984  AE34               	btfss	(___fldiv@b+2)^0,7,c
  5076   001986  EFC7  F00C         	goto	i2u284_41
  5077   00198A  EFC9  F00C         	goto	i2u284_40
  5078   00198E                     i2u284_41:
  5079   00198E  EFCA  F00C         	goto	i2l4381
  5080   001992                     i2u284_40:
  5081   001992  8049               	bsf	___fldiv@bexp^0,0,c
  5082   001994                     i2l4381:
  5083   001994  5049               	movf	___fldiv@bexp^0,w,c
  5084   001996  B4D8               	btfsc	status,2,c
  5085   001998  EFD0  F00C         	goto	i2u285_41
  5086   00199C  EFD2  F00C         	goto	i2u285_40
  5087   0019A0                     i2u285_41:
  5088   0019A0  EFE7  F00C         	goto	i2l4391
  5089   0019A4                     i2u285_40:
  5090   0019A4  2849               	incf	___fldiv@bexp^0,w,c
  5091   0019A6  A4D8               	btfss	status,2,c
  5092   0019A8  EFD8  F00C         	goto	i2u286_41
  5093   0019AC  EFDA  F00C         	goto	i2u286_40
  5094   0019B0                     i2u286_41:
  5095   0019B0  EFE2  F00C         	goto	i2l4387
  5096   0019B4                     i2u286_40:
  5097   0019B4  0E00               	movlw	0
  5098   0019B6  6E32               	movwf	___fldiv@b^0,c
  5099   0019B8  0E00               	movlw	0
  5100   0019BA  6E33               	movwf	(___fldiv@b+1)^0,c
  5101   0019BC  0E00               	movlw	0
  5102   0019BE  6E34               	movwf	(___fldiv@b+2)^0,c
  5103   0019C0  0E00               	movlw	0
  5104   0019C2  6E35               	movwf	(___fldiv@b+3)^0,c
  5105   0019C4                     i2l4387:
  5106   0019C4  8E34               	bsf	(___fldiv@b+2)^0,7,c
  5107   0019C6  0E00               	movlw	0
  5108   0019C8  6E35               	movwf	(___fldiv@b+3)^0,c
  5109   0019CA  EFEF  F00C         	goto	i2l4393
  5110   0019CE                     i2l4391:
  5111   0019CE  0E00               	movlw	0
  5112   0019D0  6E32               	movwf	___fldiv@b^0,c
  5113   0019D2  0E00               	movlw	0
  5114   0019D4  6E33               	movwf	(___fldiv@b+1)^0,c
  5115   0019D6  0E00               	movlw	0
  5116   0019D8  6E34               	movwf	(___fldiv@b+2)^0,c
  5117   0019DA  0E00               	movlw	0
  5118   0019DC  6E35               	movwf	(___fldiv@b+3)^0,c
  5119   0019DE                     i2l4393:
  5120   0019DE  5039               	movf	(___fldiv@a+3)^0,w,c
  5121   0019E0  0B80               	andlw	128
  5122   0019E2  1A42               	xorwf	___fldiv@sign^0,f,c
  5123   0019E4  5039               	movf	(___fldiv@a+3)^0,w,c
  5124   0019E6  2439               	addwf	(___fldiv@a+3)^0,w,c
  5125   0019E8  6E4A               	movwf	___fldiv@aexp^0,c
  5126   0019EA  AE38               	btfss	(___fldiv@a+2)^0,7,c
  5127   0019EC  EFFA  F00C         	goto	i2u287_41
  5128   0019F0  EFFC  F00C         	goto	i2u287_40
  5129   0019F4                     i2u287_41:
  5130   0019F4  EFFD  F00C         	goto	i2l4401
  5131   0019F8                     i2u287_40:
  5132   0019F8  804A               	bsf	___fldiv@aexp^0,0,c
  5133   0019FA                     i2l4401:
  5134   0019FA  504A               	movf	___fldiv@aexp^0,w,c
  5135   0019FC  B4D8               	btfsc	status,2,c
  5136   0019FE  EF03  F00D         	goto	i2u288_41
  5137   001A02  EF05  F00D         	goto	i2u288_40
  5138   001A06                     i2u288_41:
  5139   001A06  EF1A  F00D         	goto	i2l4411
  5140   001A0A                     i2u288_40:
  5141   001A0A  284A               	incf	___fldiv@aexp^0,w,c
  5142   001A0C  A4D8               	btfss	status,2,c
  5143   001A0E  EF0B  F00D         	goto	i2u289_41
  5144   001A12  EF0D  F00D         	goto	i2u289_40
  5145   001A16                     i2u289_41:
  5146   001A16  EF15  F00D         	goto	i2l4407
  5147   001A1A                     i2u289_40:
  5148   001A1A  0E00               	movlw	0
  5149   001A1C  6E36               	movwf	___fldiv@a^0,c
  5150   001A1E  0E00               	movlw	0
  5151   001A20  6E37               	movwf	(___fldiv@a+1)^0,c
  5152   001A22  0E00               	movlw	0
  5153   001A24  6E38               	movwf	(___fldiv@a+2)^0,c
  5154   001A26  0E00               	movlw	0
  5155   001A28  6E39               	movwf	(___fldiv@a+3)^0,c
  5156   001A2A                     i2l4407:
  5157   001A2A  8E38               	bsf	(___fldiv@a+2)^0,7,c
  5158   001A2C  0E00               	movlw	0
  5159   001A2E  6E39               	movwf	(___fldiv@a+3)^0,c
  5160   001A30  EF22  F00D         	goto	i2l4413
  5161   001A34                     i2l4411:
  5162   001A34  0E00               	movlw	0
  5163   001A36  6E36               	movwf	___fldiv@a^0,c
  5164   001A38  0E00               	movlw	0
  5165   001A3A  6E37               	movwf	(___fldiv@a+1)^0,c
  5166   001A3C  0E00               	movlw	0
  5167   001A3E  6E38               	movwf	(___fldiv@a+2)^0,c
  5168   001A40  0E00               	movlw	0
  5169   001A42  6E39               	movwf	(___fldiv@a+3)^0,c
  5170   001A44                     i2l4413:
  5171   001A44  5036               	movf	___fldiv@a^0,w,c
  5172   001A46  1037               	iorwf	(___fldiv@a+1)^0,w,c
  5173   001A48  1038               	iorwf	(___fldiv@a+2)^0,w,c
  5174   001A4A  1039               	iorwf	(___fldiv@a+3)^0,w,c
  5175   001A4C  A4D8               	btfss	status,2,c
  5176   001A4E  EF2B  F00D         	goto	i2u290_41
  5177   001A52  EF2D  F00D         	goto	i2u290_40
  5178   001A56                     i2u290_41:
  5179   001A56  EF45  F00D         	goto	i2l4425
  5180   001A5A                     i2u290_40:
  5181   001A5A  0E00               	movlw	0
  5182   001A5C  6E32               	movwf	___fldiv@b^0,c
  5183   001A5E  0E00               	movlw	0
  5184   001A60  6E33               	movwf	(___fldiv@b+1)^0,c
  5185   001A62  0E00               	movlw	0
  5186   001A64  6E34               	movwf	(___fldiv@b+2)^0,c
  5187   001A66  0E00               	movlw	0
  5188   001A68  6E35               	movwf	(___fldiv@b+3)^0,c
  5189   001A6A  0E80               	movlw	128
  5190   001A6C  1234               	iorwf	(___fldiv@b+2)^0,f,c
  5191   001A6E  0E7F               	movlw	127
  5192   001A70  1235               	iorwf	(___fldiv@b+3)^0,f,c
  5193   001A72                     i2l4419:
  5194   001A72  5042               	movf	___fldiv@sign^0,w,c
  5195   001A74  1235               	iorwf	(___fldiv@b+3)^0,f,c
  5196   001A76  C032  F032         	movff	___fldiv@b,?___fldiv
  5197   001A7A  C033  F033         	movff	___fldiv@b+1,?___fldiv+1
  5198   001A7E  C034  F034         	movff	___fldiv@b+2,?___fldiv+2
  5199   001A82  C035  F035         	movff	___fldiv@b+3,?___fldiv+3
  5200   001A86  EF88  F00E         	goto	i2l1820
  5201   001A8A                     i2l4425:
  5202   001A8A  5049               	movf	___fldiv@bexp^0,w,c
  5203   001A8C  A4D8               	btfss	status,2,c
  5204   001A8E  EF4B  F00D         	goto	i2u291_41
  5205   001A92  EF4D  F00D         	goto	i2u291_40
  5206   001A96                     i2u291_41:
  5207   001A96  EF57  F00D         	goto	i2l4433
  5208   001A9A                     i2u291_40:
  5209   001A9A  0E00               	movlw	0
  5210   001A9C  6E32               	movwf	?___fldiv^0,c
  5211   001A9E  0E00               	movlw	0
  5212   001AA0  6E33               	movwf	(?___fldiv+1)^0,c
  5213   001AA2  0E00               	movlw	0
  5214   001AA4  6E34               	movwf	(?___fldiv+2)^0,c
  5215   001AA6  0E00               	movlw	0
  5216   001AA8  6E35               	movwf	(?___fldiv+3)^0,c
  5217   001AAA  EF88  F00E         	goto	i2l1820
  5218   001AAE                     i2l4433:
  5219   001AAE  504A               	movf	___fldiv@aexp^0,w,c
  5220   001AB0  C049  F03A         	movff	___fldiv@bexp,??___fldiv
  5221   001AB4  6A3B               	clrf	(??___fldiv+1)^0,c
  5222   001AB6  5E3A               	subwf	??___fldiv^0,f,c
  5223   001AB8  0E00               	movlw	0
  5224   001ABA  5A3B               	subwfb	(??___fldiv+1)^0,f,c
  5225   001ABC  0E7F               	movlw	127
  5226   001ABE  243A               	addwf	??___fldiv^0,w,c
  5227   001AC0  6E43               	movwf	___fldiv@new_exp^0,c
  5228   001AC2  0E00               	movlw	0
  5229   001AC4  203B               	addwfc	(??___fldiv+1)^0,w,c
  5230   001AC6  6E44               	movwf	(___fldiv@new_exp+1)^0,c
  5231   001AC8  C032  F03E         	movff	___fldiv@b,___fldiv@rem
  5232   001ACC  C033  F03F         	movff	___fldiv@b+1,___fldiv@rem+1
  5233   001AD0  C034  F040         	movff	___fldiv@b+2,___fldiv@rem+2
  5234   001AD4  C035  F041         	movff	___fldiv@b+3,___fldiv@rem+3
  5235   001AD8  0E00               	movlw	0
  5236   001ADA  6E32               	movwf	___fldiv@b^0,c
  5237   001ADC  0E00               	movlw	0
  5238   001ADE  6E33               	movwf	(___fldiv@b+1)^0,c
  5239   001AE0  0E00               	movlw	0
  5240   001AE2  6E34               	movwf	(___fldiv@b+2)^0,c
  5241   001AE4  0E00               	movlw	0
  5242   001AE6  6E35               	movwf	(___fldiv@b+3)^0,c
  5243   001AE8  0E00               	movlw	0
  5244   001AEA  6E45               	movwf	___fldiv@grs^0,c
  5245   001AEC  0E00               	movlw	0
  5246   001AEE  6E46               	movwf	(___fldiv@grs+1)^0,c
  5247   001AF0  0E00               	movlw	0
  5248   001AF2  6E47               	movwf	(___fldiv@grs+2)^0,c
  5249   001AF4  0E00               	movlw	0
  5250   001AF6  6E48               	movwf	(___fldiv@grs+3)^0,c
  5251   001AF8  0E00               	movlw	0
  5252   001AFA  6E4A               	movwf	___fldiv@aexp^0,c
  5253   001AFC  EFB8  F00D         	goto	i2l1822
  5254   001B00                     i2l4443:
  5255   001B00  504A               	movf	___fldiv@aexp^0,w,c
  5256   001B02  B4D8               	btfsc	status,2,c
  5257   001B04  EF86  F00D         	goto	i2u292_41
  5258   001B08  EF88  F00D         	goto	i2u292_40
  5259   001B0C                     i2u292_41:
  5260   001B0C  EF9F  F00D         	goto	i2l4451
  5261   001B10                     i2u292_40:
  5262   001B10  90D8               	bcf	status,0,c
  5263   001B12  363E               	rlcf	___fldiv@rem^0,f,c
  5264   001B14  363F               	rlcf	(___fldiv@rem+1)^0,f,c
  5265   001B16  3640               	rlcf	(___fldiv@rem+2)^0,f,c
  5266   001B18  3641               	rlcf	(___fldiv@rem+3)^0,f,c
  5267   001B1A  90D8               	bcf	status,0,c
  5268   001B1C  3632               	rlcf	___fldiv@b^0,f,c
  5269   001B1E  3633               	rlcf	(___fldiv@b+1)^0,f,c
  5270   001B20  3634               	rlcf	(___fldiv@b+2)^0,f,c
  5271   001B22  3635               	rlcf	(___fldiv@b+3)^0,f,c
  5272   001B24  AE48               	btfss	(___fldiv@grs+3)^0,7,c
  5273   001B26  EF97  F00D         	goto	i2u293_41
  5274   001B2A  EF99  F00D         	goto	i2u293_40
  5275   001B2E                     i2u293_41:
  5276   001B2E  EF9A  F00D         	goto	i2l1825
  5277   001B32                     i2u293_40:
  5278   001B32  8032               	bsf	___fldiv@b^0,0,c
  5279   001B34                     i2l1825:
  5280   001B34  90D8               	bcf	status,0,c
  5281   001B36  3645               	rlcf	___fldiv@grs^0,f,c
  5282   001B38  3646               	rlcf	(___fldiv@grs+1)^0,f,c
  5283   001B3A  3647               	rlcf	(___fldiv@grs+2)^0,f,c
  5284   001B3C  3648               	rlcf	(___fldiv@grs+3)^0,f,c
  5285   001B3E                     i2l4451:
  5286   001B3E  5036               	movf	___fldiv@a^0,w,c
  5287   001B40  5C3E               	subwf	___fldiv@rem^0,w,c
  5288   001B42  5037               	movf	(___fldiv@a+1)^0,w,c
  5289   001B44  583F               	subwfb	(___fldiv@rem+1)^0,w,c
  5290   001B46  5038               	movf	(___fldiv@a+2)^0,w,c
  5291   001B48  5840               	subwfb	(___fldiv@rem+2)^0,w,c
  5292   001B4A  5039               	movf	(___fldiv@a+3)^0,w,c
  5293   001B4C  5841               	subwfb	(___fldiv@rem+3)^0,w,c
  5294   001B4E  A0D8               	btfss	status,0,c
  5295   001B50  EFAC  F00D         	goto	i2u294_41
  5296   001B54  EFAE  F00D         	goto	i2u294_40
  5297   001B58                     i2u294_41:
  5298   001B58  EFB7  F00D         	goto	i2l4457
  5299   001B5C                     i2u294_40:
  5300   001B5C  8C48               	bsf	(___fldiv@grs+3)^0,6,c
  5301   001B5E  5036               	movf	___fldiv@a^0,w,c
  5302   001B60  5E3E               	subwf	___fldiv@rem^0,f,c
  5303   001B62  5037               	movf	(___fldiv@a+1)^0,w,c
  5304   001B64  5A3F               	subwfb	(___fldiv@rem+1)^0,f,c
  5305   001B66  5038               	movf	(___fldiv@a+2)^0,w,c
  5306   001B68  5A40               	subwfb	(___fldiv@rem+2)^0,f,c
  5307   001B6A  5039               	movf	(___fldiv@a+3)^0,w,c
  5308   001B6C  5A41               	subwfb	(___fldiv@rem+3)^0,f,c
  5309   001B6E                     i2l4457:
  5310   001B6E  2A4A               	incf	___fldiv@aexp^0,f,c
  5311   001B70                     i2l1822:
  5312   001B70  0E19               	movlw	25
  5313   001B72  644A               	cpfsgt	___fldiv@aexp^0,c
  5314   001B74  EFBE  F00D         	goto	i2u295_41
  5315   001B78  EFC0  F00D         	goto	i2u295_40
  5316   001B7C                     i2u295_41:
  5317   001B7C  EF80  F00D         	goto	i2l4443
  5318   001B80                     i2u295_40:
  5319   001B80  503E               	movf	___fldiv@rem^0,w,c
  5320   001B82  103F               	iorwf	(___fldiv@rem+1)^0,w,c
  5321   001B84  1040               	iorwf	(___fldiv@rem+2)^0,w,c
  5322   001B86  1041               	iorwf	(___fldiv@rem+3)^0,w,c
  5323   001B88  B4D8               	btfsc	status,2,c
  5324   001B8A  EFC9  F00D         	goto	i2u296_41
  5325   001B8E  EFCB  F00D         	goto	i2u296_40
  5326   001B92                     i2u296_41:
  5327   001B92  EFE3  F00D         	goto	i2l4469
  5328   001B96                     i2u296_40:
  5329   001B96  8045               	bsf	___fldiv@grs^0,0,c
  5330   001B98  EFE3  F00D         	goto	i2l4469
  5331   001B9C                     i2l4463:
  5332   001B9C  90D8               	bcf	status,0,c
  5333   001B9E  3632               	rlcf	___fldiv@b^0,f,c
  5334   001BA0  3633               	rlcf	(___fldiv@b+1)^0,f,c
  5335   001BA2  3634               	rlcf	(___fldiv@b+2)^0,f,c
  5336   001BA4  3635               	rlcf	(___fldiv@b+3)^0,f,c
  5337   001BA6  AE48               	btfss	(___fldiv@grs+3)^0,7,c
  5338   001BA8  EFD8  F00D         	goto	i2u297_41
  5339   001BAC  EFDA  F00D         	goto	i2u297_40
  5340   001BB0                     i2u297_41:
  5341   001BB0  EFDB  F00D         	goto	i2l1831
  5342   001BB4                     i2u297_40:
  5343   001BB4  8032               	bsf	___fldiv@b^0,0,c
  5344   001BB6                     i2l1831:
  5345   001BB6  90D8               	bcf	status,0,c
  5346   001BB8  3645               	rlcf	___fldiv@grs^0,f,c
  5347   001BBA  3646               	rlcf	(___fldiv@grs+1)^0,f,c
  5348   001BBC  3647               	rlcf	(___fldiv@grs+2)^0,f,c
  5349   001BBE  3648               	rlcf	(___fldiv@grs+3)^0,f,c
  5350   001BC0  0643               	decf	___fldiv@new_exp^0,f,c
  5351   001BC2  A0D8               	btfss	status,0,c
  5352   001BC4  0644               	decf	(___fldiv@new_exp+1)^0,f,c
  5353   001BC6                     i2l4469:
  5354   001BC6  AE34               	btfss	(___fldiv@b+2)^0,7,c
  5355   001BC8  EFE8  F00D         	goto	i2u298_41
  5356   001BCC  EFEA  F00D         	goto	i2u298_40
  5357   001BD0                     i2u298_41:
  5358   001BD0  EFCE  F00D         	goto	i2l4463
  5359   001BD4                     i2u298_40:
  5360   001BD4  0E00               	movlw	0
  5361   001BD6  6E4A               	movwf	___fldiv@aexp^0,c
  5362   001BD8  AE48               	btfss	(___fldiv@grs+3)^0,7,c
  5363   001BDA  EFF1  F00D         	goto	i2u299_41
  5364   001BDE  EFF3  F00D         	goto	i2u299_40
  5365   001BE2                     i2u299_41:
  5366   001BE2  EF17  F00E         	goto	i2l1833
  5367   001BE6                     i2u299_40:
  5368   001BE6  0EFF               	movlw	255
  5369   001BE8  1445               	andwf	___fldiv@grs^0,w,c
  5370   001BEA  6E3A               	movwf	??___fldiv^0,c
  5371   001BEC  0EFF               	movlw	255
  5372   001BEE  1446               	andwf	(___fldiv@grs+1)^0,w,c
  5373   001BF0  6E3B               	movwf	(??___fldiv+1)^0,c
  5374   001BF2  0EFF               	movlw	255
  5375   001BF4  1447               	andwf	(___fldiv@grs+2)^0,w,c
  5376   001BF6  6E3C               	movwf	(??___fldiv+2)^0,c
  5377   001BF8  0E7F               	movlw	127
  5378   001BFA  1448               	andwf	(___fldiv@grs+3)^0,w,c
  5379   001BFC  6E3D               	movwf	(??___fldiv+3)^0,c
  5380   001BFE  503A               	movf	??___fldiv^0,w,c
  5381   001C00  103B               	iorwf	(??___fldiv+1)^0,w,c
  5382   001C02  103C               	iorwf	(??___fldiv+2)^0,w,c
  5383   001C04  103D               	iorwf	(??___fldiv+3)^0,w,c
  5384   001C06  B4D8               	btfsc	status,2,c
  5385   001C08  EF08  F00E         	goto	i2u300_41
  5386   001C0C  EF0A  F00E         	goto	i2u300_40
  5387   001C10                     i2u300_41:
  5388   001C10  EF0E  F00E         	goto	i2l1834
  5389   001C14                     i2u300_40:
  5390   001C14                     i2l4477:
  5391   001C14  0E01               	movlw	1
  5392   001C16  6E4A               	movwf	___fldiv@aexp^0,c
  5393   001C18  EF17  F00E         	goto	i2l1833
  5394   001C1C                     i2l1834:
  5395   001C1C  A032               	btfss	___fldiv@b^0,0,c
  5396   001C1E  EF13  F00E         	goto	i2u301_41
  5397   001C22  EF15  F00E         	goto	i2u301_40
  5398   001C26                     i2u301_41:
  5399   001C26  EF17  F00E         	goto	i2l1833
  5400   001C2A                     i2u301_40:
  5401   001C2A  EF0A  F00E         	goto	i2l4477
  5402   001C2E                     i2l1833:
  5403   001C2E  504A               	movf	___fldiv@aexp^0,w,c
  5404   001C30  B4D8               	btfsc	status,2,c
  5405   001C32  EF1D  F00E         	goto	i2u302_41
  5406   001C36  EF1F  F00E         	goto	i2u302_40
  5407   001C3A                     i2u302_41:
  5408   001C3A  EF43  F00E         	goto	i2l4489
  5409   001C3E                     i2u302_40:
  5410   001C3E  0E01               	movlw	1
  5411   001C40  2632               	addwf	___fldiv@b^0,f,c
  5412   001C42  0E00               	movlw	0
  5413   001C44  2233               	addwfc	(___fldiv@b+1)^0,f,c
  5414   001C46  2234               	addwfc	(___fldiv@b+2)^0,f,c
  5415   001C48  2235               	addwfc	(___fldiv@b+3)^0,f,c
  5416   001C4A  A035               	btfss	(___fldiv@b+3)^0,0,c
  5417   001C4C  EF2A  F00E         	goto	i2u303_41
  5418   001C50  EF2C  F00E         	goto	i2u303_40
  5419   001C54                     i2u303_41:
  5420   001C54  EF43  F00E         	goto	i2l4489
  5421   001C58                     i2u303_40:
  5422   001C58  C032  F03A         	movff	___fldiv@b,??___fldiv
  5423   001C5C  C033  F03B         	movff	___fldiv@b+1,??___fldiv+1
  5424   001C60  C034  F03C         	movff	___fldiv@b+2,??___fldiv+2
  5425   001C64  C035  F03D         	movff	___fldiv@b+3,??___fldiv+3
  5426   001C68  343D               	rlcf	(??___fldiv+3)^0,w,c
  5427   001C6A  323D               	rrcf	(??___fldiv+3)^0,f,c
  5428   001C6C  323C               	rrcf	(??___fldiv+2)^0,f,c
  5429   001C6E  323B               	rrcf	(??___fldiv+1)^0,f,c
  5430   001C70  323A               	rrcf	??___fldiv^0,f,c
  5431   001C72  C03A  F032         	movff	??___fldiv,___fldiv@b
  5432   001C76  C03B  F033         	movff	??___fldiv+1,___fldiv@b+1
  5433   001C7A  C03C  F034         	movff	??___fldiv+2,___fldiv@b+2
  5434   001C7E  C03D  F035         	movff	??___fldiv+3,___fldiv@b+3
  5435   001C82  4A43               	infsnz	___fldiv@new_exp^0,f,c
  5436   001C84  2A44               	incf	(___fldiv@new_exp+1)^0,f,c
  5437   001C86                     i2l4489:
  5438   001C86  BE44               	btfsc	(___fldiv@new_exp+1)^0,7,c
  5439   001C88  EF4E  F00E         	goto	i2u304_41
  5440   001C8C  5044               	movf	(___fldiv@new_exp+1)^0,w,c
  5441   001C8E  E108               	bnz	i2u304_40
  5442   001C90  2843               	incf	___fldiv@new_exp^0,w,c
  5443   001C92  A0D8               	btfss	status,0,c
  5444   001C94  EF4E  F00E         	goto	i2u304_41
  5445   001C98  EF50  F00E         	goto	i2u304_40
  5446   001C9C                     i2u304_41:
  5447   001C9C  EF5B  F00E         	goto	i2l4493
  5448   001CA0                     i2u304_40:
  5449   001CA0  0E00               	movlw	0
  5450   001CA2  6E44               	movwf	(___fldiv@new_exp+1)^0,c
  5451   001CA4  6843               	setf	___fldiv@new_exp^0,c
  5452   001CA6  0E00               	movlw	0
  5453   001CA8  6E32               	movwf	___fldiv@b^0,c
  5454   001CAA  0E00               	movlw	0
  5455   001CAC  6E33               	movwf	(___fldiv@b+1)^0,c
  5456   001CAE  0E00               	movlw	0
  5457   001CB0  6E34               	movwf	(___fldiv@b+2)^0,c
  5458   001CB2  0E00               	movlw	0
  5459   001CB4  6E35               	movwf	(___fldiv@b+3)^0,c
  5460   001CB6                     i2l4493:
  5461   001CB6  BE44               	btfsc	(___fldiv@new_exp+1)^0,7,c
  5462   001CB8  EF68  F00E         	goto	i2u305_40
  5463   001CBC  5044               	movf	(___fldiv@new_exp+1)^0,w,c
  5464   001CBE  E106               	bnz	i2u305_41
  5465   001CC0  0443               	decf	___fldiv@new_exp^0,w,c
  5466   001CC2  B0D8               	btfsc	status,0,c
  5467   001CC4  EF66  F00E         	goto	i2u305_41
  5468   001CC8  EF68  F00E         	goto	i2u305_40
  5469   001CCC                     i2u305_41:
  5470   001CCC  EF76  F00E         	goto	i2l4497
  5471   001CD0                     i2u305_40:
  5472   001CD0  0E00               	movlw	0
  5473   001CD2  6E44               	movwf	(___fldiv@new_exp+1)^0,c
  5474   001CD4  0E00               	movlw	0
  5475   001CD6  6E43               	movwf	___fldiv@new_exp^0,c
  5476   001CD8  0E00               	movlw	0
  5477   001CDA  6E32               	movwf	___fldiv@b^0,c
  5478   001CDC  0E00               	movlw	0
  5479   001CDE  6E33               	movwf	(___fldiv@b+1)^0,c
  5480   001CE0  0E00               	movlw	0
  5481   001CE2  6E34               	movwf	(___fldiv@b+2)^0,c
  5482   001CE4  0E00               	movlw	0
  5483   001CE6  6E35               	movwf	(___fldiv@b+3)^0,c
  5484   001CE8  0E00               	movlw	0
  5485   001CEA  6E42               	movwf	___fldiv@sign^0,c
  5486   001CEC                     i2l4497:
  5487   001CEC  C043  F049         	movff	___fldiv@new_exp,___fldiv@bexp
  5488   001CF0  A049               	btfss	___fldiv@bexp^0,0,c
  5489   001CF2  EF7D  F00E         	goto	i2u306_41
  5490   001CF6  EF7F  F00E         	goto	i2u306_40
  5491   001CFA                     i2u306_41:
  5492   001CFA  EF82  F00E         	goto	i2l4503
  5493   001CFE                     i2u306_40:
  5494   001CFE  8E34               	bsf	(___fldiv@b+2)^0,7,c
  5495   001D00  EF83  F00E         	goto	i2l4505
  5496   001D04                     i2l4503:
  5497   001D04  9E34               	bcf	(___fldiv@b+2)^0,7,c
  5498   001D06                     i2l4505:
  5499   001D06  90D8               	bcf	status,0,c
  5500   001D08  3049               	rrcf	___fldiv@bexp^0,w,c
  5501   001D0A  6E35               	movwf	(___fldiv@b+3)^0,c
  5502   001D0C  EF39  F00D         	goto	i2l4419
  5503   001D10                     i2l1820:
  5504   001D10  0012               	return		;funcret
  5505   001D12                     __end_of___fldiv:
  5506                           	callstack 0
  5507                           
  5508 ;; *************** function ___xxtofl *****************
  5509 ;; Defined at:
  5510 ;;		line 10 in file "C:\Program Files\Microchip\xc8\v2.45\pic\sources\c99\common\xxtofl.c"
  5511 ;; Parameters:    Size  Location     Type
  5512 ;;  sign            1    wreg     unsigned char 
  5513 ;;  val             4    5[COMRAM] long 
  5514 ;; Auto vars:     Size  Location     Type
  5515 ;;  sign            1   13[COMRAM] unsigned char 
  5516 ;;  arg             4   15[COMRAM] unsigned long 
  5517 ;;  exp             1   14[COMRAM] unsigned char 
  5518 ;; Return value:  Size  Location     Type
  5519 ;;                  4    5[COMRAM] unsigned char 
  5520 ;; Registers used:
  5521 ;;		wreg, status,2, status,0
  5522 ;; Tracked objects:
  5523 ;;		On entry : 0/0
  5524 ;;		On exit  : 0/0
  5525 ;;		Unchanged: 0/0
  5526 ;; Data sizes:     COMRAM   BANK0   BANK1   BANK2   BANK3   BANK4   BANK5   BANK6   BANK7   BANK8   BANK9  BANK10  BANK1
      +1  BANK12  BANK13  BANK14  BANK15
  5527 ;;      Params:         4       0       0       0       0       0       0       0       0       0       0       0       
      +0       0       0       0       0
  5528 ;;      Locals:         6       0       0       0       0       0       0       0       0       0       0       0       
      +0       0       0       0       0
  5529 ;;      Temps:          4       0       0       0       0       0       0       0       0       0       0       0       
      +0       0       0       0       0
  5530 ;;      Totals:        14       0       0       0       0       0       0       0       0       0       0       0       
      +0       0       0       0       0
  5531 ;;Total ram usage:       14 bytes
  5532 ;; Hardware stack levels used: 1
  5533 ;; This function calls:
  5534 ;;		Nothing
  5535 ;; This function is called by:
  5536 ;;		_INTERRUPT_InterruptManager
  5537 ;; This function uses a non-reentrant model
  5538 ;;
  5539                           
  5540                           	psect	text33
  5541   002170                     __ptext33:
  5542                           	callstack 0
  5543   002170                     ___xxtofl:
  5544                           	callstack 26
  5545                           
  5546                           ;incstack = 0
  5547                           ;___xxtofl@sign stored from wreg
  5548   002170  6E0E               	movwf	___xxtofl@sign^0,c
  5549   002172  500E               	movf	___xxtofl@sign^0,w,c
  5550   002174  B4D8               	btfsc	status,2,c
  5551   002176  EFBF  F010         	goto	i2u355_41
  5552   00217A  EFC1  F010         	goto	i2u355_40
  5553   00217E                     i2u355_41:
  5554   00217E  EFE3  F010         	goto	i2l1893
  5555   002182                     i2u355_40:
  5556   002182  BE09               	btfsc	(___xxtofl@val+3)^0,7,c
  5557   002184  EFC8  F010         	goto	i2u356_40
  5558   002188  EFC6  F010         	goto	i2u356_41
  5559   00218C                     i2u356_41:
  5560   00218C  EFE3  F010         	goto	i2l1893
  5561   002190                     i2u356_40:
  5562   002190  C006  F00A         	movff	___xxtofl@val,??___xxtofl
  5563   002194  C007  F00B         	movff	___xxtofl@val+1,??___xxtofl+1
  5564   002198  C008  F00C         	movff	___xxtofl@val+2,??___xxtofl+2
  5565   00219C  C009  F00D         	movff	___xxtofl@val+3,??___xxtofl+3
  5566   0021A0  1E0A               	comf	??___xxtofl^0,f,c
  5567   0021A2  1E0B               	comf	(??___xxtofl+1)^0,f,c
  5568   0021A4  1E0C               	comf	(??___xxtofl+2)^0,f,c
  5569   0021A6  1E0D               	comf	(??___xxtofl+3)^0,f,c
  5570   0021A8  2A0A               	incf	??___xxtofl^0,f,c
  5571   0021AA  0E00               	movlw	0
  5572   0021AC  220B               	addwfc	(??___xxtofl+1)^0,f,c
  5573   0021AE  220C               	addwfc	(??___xxtofl+2)^0,f,c
  5574   0021B0  220D               	addwfc	(??___xxtofl+3)^0,f,c
  5575   0021B2  C00A  F010         	movff	??___xxtofl,___xxtofl@arg
  5576   0021B6  C00B  F011         	movff	??___xxtofl+1,___xxtofl@arg+1
  5577   0021BA  C00C  F012         	movff	??___xxtofl+2,___xxtofl@arg+2
  5578   0021BE  C00D  F013         	movff	??___xxtofl+3,___xxtofl@arg+3
  5579   0021C2  EFEB  F010         	goto	i2l4891
  5580   0021C6                     i2l1893:
  5581   0021C6  C006  F010         	movff	___xxtofl@val,___xxtofl@arg
  5582   0021CA  C007  F011         	movff	___xxtofl@val+1,___xxtofl@arg+1
  5583   0021CE  C008  F012         	movff	___xxtofl@val+2,___xxtofl@arg+2
  5584   0021D2  C009  F013         	movff	___xxtofl@val+3,___xxtofl@arg+3
  5585   0021D6                     i2l4891:
  5586   0021D6  5006               	movf	___xxtofl@val^0,w,c
  5587   0021D8  1007               	iorwf	(___xxtofl@val+1)^0,w,c
  5588   0021DA  1008               	iorwf	(___xxtofl@val+2)^0,w,c
  5589   0021DC  1009               	iorwf	(___xxtofl@val+3)^0,w,c
  5590   0021DE  A4D8               	btfss	status,2,c
  5591   0021E0  EFF4  F010         	goto	i2u357_41
  5592   0021E4  EFF6  F010         	goto	i2u357_40
  5593   0021E8                     i2u357_41:
  5594   0021E8  EF00  F011         	goto	i2l4897
  5595   0021EC                     i2u357_40:
  5596   0021EC  0E00               	movlw	0
  5597   0021EE  6E06               	movwf	?___xxtofl^0,c
  5598   0021F0  0E00               	movlw	0
  5599   0021F2  6E07               	movwf	(?___xxtofl+1)^0,c
  5600   0021F4  0E00               	movlw	0
  5601   0021F6  6E08               	movwf	(?___xxtofl+2)^0,c
  5602   0021F8  0E00               	movlw	0
  5603   0021FA  6E09               	movwf	(?___xxtofl+3)^0,c
  5604   0021FC  EF91  F011         	goto	i2l1896
  5605   002200                     i2l4897:
  5606   002200  0E96               	movlw	150
  5607   002202  6E0F               	movwf	___xxtofl@exp^0,c
  5608   002204  EF0A  F011         	goto	i2l4901
  5609   002208                     i2l4899:
  5610   002208  2A0F               	incf	___xxtofl@exp^0,f,c
  5611   00220A  90D8               	bcf	status,0,c
  5612   00220C  3213               	rrcf	(___xxtofl@arg+3)^0,f,c
  5613   00220E  3212               	rrcf	(___xxtofl@arg+2)^0,f,c
  5614   002210  3211               	rrcf	(___xxtofl@arg+1)^0,f,c
  5615   002212  3210               	rrcf	___xxtofl@arg^0,f,c
  5616   002214                     i2l4901:
  5617   002214  0E00               	movlw	0
  5618   002216  1410               	andwf	___xxtofl@arg^0,w,c
  5619   002218  6E0A               	movwf	??___xxtofl^0,c
  5620   00221A  0E00               	movlw	0
  5621   00221C  1411               	andwf	(___xxtofl@arg+1)^0,w,c
  5622   00221E  6E0B               	movwf	(??___xxtofl+1)^0,c
  5623   002220  0E00               	movlw	0
  5624   002222  1412               	andwf	(___xxtofl@arg+2)^0,w,c
  5625   002224  6E0C               	movwf	(??___xxtofl+2)^0,c
  5626   002226  0EFE               	movlw	254
  5627   002228  1413               	andwf	(___xxtofl@arg+3)^0,w,c
  5628   00222A  6E0D               	movwf	(??___xxtofl+3)^0,c
  5629   00222C  500A               	movf	??___xxtofl^0,w,c
  5630   00222E  100B               	iorwf	(??___xxtofl+1)^0,w,c
  5631   002230  100C               	iorwf	(??___xxtofl+2)^0,w,c
  5632   002232  100D               	iorwf	(??___xxtofl+3)^0,w,c
  5633   002234  A4D8               	btfss	status,2,c
  5634   002236  EF1F  F011         	goto	i2u358_41
  5635   00223A  EF21  F011         	goto	i2u358_40
  5636   00223E                     i2u358_41:
  5637   00223E  EF04  F011         	goto	i2l4899
  5638   002242                     i2u358_40:
  5639   002242  EF2F  F011         	goto	i2l1900
  5640   002246                     i2l4903:
  5641   002246  2A0F               	incf	___xxtofl@exp^0,f,c
  5642   002248  0E01               	movlw	1
  5643   00224A  2610               	addwf	___xxtofl@arg^0,f,c
  5644   00224C  0E00               	movlw	0
  5645   00224E  2211               	addwfc	(___xxtofl@arg+1)^0,f,c
  5646   002250  2212               	addwfc	(___xxtofl@arg+2)^0,f,c
  5647   002252  2213               	addwfc	(___xxtofl@arg+3)^0,f,c
  5648   002254  90D8               	bcf	status,0,c
  5649   002256  3213               	rrcf	(___xxtofl@arg+3)^0,f,c
  5650   002258  3212               	rrcf	(___xxtofl@arg+2)^0,f,c
  5651   00225A  3211               	rrcf	(___xxtofl@arg+1)^0,f,c
  5652   00225C  3210               	rrcf	___xxtofl@arg^0,f,c
  5653   00225E                     i2l1900:
  5654   00225E  0E00               	movlw	0
  5655   002260  1410               	andwf	___xxtofl@arg^0,w,c
  5656   002262  6E0A               	movwf	??___xxtofl^0,c
  5657   002264  0E00               	movlw	0
  5658   002266  1411               	andwf	(___xxtofl@arg+1)^0,w,c
  5659   002268  6E0B               	movwf	(??___xxtofl+1)^0,c
  5660   00226A  0E00               	movlw	0
  5661   00226C  1412               	andwf	(___xxtofl@arg+2)^0,w,c
  5662   00226E  6E0C               	movwf	(??___xxtofl+2)^0,c
  5663   002270  0EFF               	movlw	255
  5664   002272  1413               	andwf	(___xxtofl@arg+3)^0,w,c
  5665   002274  6E0D               	movwf	(??___xxtofl+3)^0,c
  5666   002276  500A               	movf	??___xxtofl^0,w,c
  5667   002278  100B               	iorwf	(??___xxtofl+1)^0,w,c
  5668   00227A  100C               	iorwf	(??___xxtofl+2)^0,w,c
  5669   00227C  100D               	iorwf	(??___xxtofl+3)^0,w,c
  5670   00227E  A4D8               	btfss	status,2,c
  5671   002280  EF44  F011         	goto	i2u359_41
  5672   002284  EF46  F011         	goto	i2u359_40
  5673   002288                     i2u359_41:
  5674   002288  EF23  F011         	goto	i2l4903
  5675   00228C                     i2u359_40:
  5676   00228C  EF4E  F011         	goto	i2l4911
  5677   002290                     i2l4909:
  5678   002290  060F               	decf	___xxtofl@exp^0,f,c
  5679   002292  90D8               	bcf	status,0,c
  5680   002294  3610               	rlcf	___xxtofl@arg^0,f,c
  5681   002296  3611               	rlcf	(___xxtofl@arg+1)^0,f,c
  5682   002298  3612               	rlcf	(___xxtofl@arg+2)^0,f,c
  5683   00229A  3613               	rlcf	(___xxtofl@arg+3)^0,f,c
  5684   00229C                     i2l4911:
  5685   00229C  BE12               	btfsc	(___xxtofl@arg+2)^0,7,c
  5686   00229E  EF53  F011         	goto	i2u360_41
  5687   0022A2  EF55  F011         	goto	i2u360_40
  5688   0022A6                     i2u360_41:
  5689   0022A6  EF5D  F011         	goto	i2l1907
  5690   0022AA                     i2u360_40:
  5691   0022AA  0E02               	movlw	2
  5692   0022AC  600F               	cpfslt	___xxtofl@exp^0,c
  5693   0022AE  EF5B  F011         	goto	i2u361_41
  5694   0022B2  EF5D  F011         	goto	i2u361_40
  5695   0022B6                     i2u361_41:
  5696   0022B6  EF48  F011         	goto	i2l4909
  5697   0022BA                     i2u361_40:
  5698   0022BA                     i2l1907:
  5699   0022BA  B00F               	btfsc	___xxtofl@exp^0,0,c
  5700   0022BC  EF62  F011         	goto	i2u362_41
  5701   0022C0  EF64  F011         	goto	i2u362_40
  5702   0022C4                     i2u362_41:
  5703   0022C4  EF65  F011         	goto	i2l4917
  5704   0022C8                     i2u362_40:
  5705   0022C8  9E12               	bcf	(___xxtofl@arg+2)^0,7,c
  5706   0022CA                     i2l4917:
  5707   0022CA  90D8               	bcf	status,0,c
  5708   0022CC  320F               	rrcf	___xxtofl@exp^0,f,c
  5709   0022CE  C00F  F00A         	movff	___xxtofl@exp,??___xxtofl
  5710   0022D2  6A0B               	clrf	(??___xxtofl+1)^0,c
  5711   0022D4  6A0C               	clrf	(??___xxtofl+2)^0,c
  5712   0022D6  6A0D               	clrf	(??___xxtofl+3)^0,c
  5713   0022D8  C00A  F00D         	movff	??___xxtofl,??___xxtofl+3
  5714   0022DC  6A0C               	clrf	(??___xxtofl+2)^0,c
  5715   0022DE  6A0B               	clrf	(??___xxtofl+1)^0,c
  5716   0022E0  6A0A               	clrf	??___xxtofl^0,c
  5717   0022E2  500A               	movf	??___xxtofl^0,w,c
  5718   0022E4  1210               	iorwf	___xxtofl@arg^0,f,c
  5719   0022E6  500B               	movf	(??___xxtofl+1)^0,w,c
  5720   0022E8  1211               	iorwf	(___xxtofl@arg+1)^0,f,c
  5721   0022EA  500C               	movf	(??___xxtofl+2)^0,w,c
  5722   0022EC  1212               	iorwf	(___xxtofl@arg+2)^0,f,c
  5723   0022EE  500D               	movf	(??___xxtofl+3)^0,w,c
  5724   0022F0  1213               	iorwf	(___xxtofl@arg+3)^0,f,c
  5725   0022F2  500E               	movf	___xxtofl@sign^0,w,c
  5726   0022F4  B4D8               	btfsc	status,2,c
  5727   0022F6  EF7F  F011         	goto	i2u363_41
  5728   0022FA  EF81  F011         	goto	i2u363_40
  5729   0022FE                     i2u363_41:
  5730   0022FE  EF89  F011         	goto	i2l4927
  5731   002302                     i2u363_40:
  5732   002302  BE09               	btfsc	(___xxtofl@val+3)^0,7,c
  5733   002304  EF88  F011         	goto	i2u364_40
  5734   002308  EF86  F011         	goto	i2u364_41
  5735   00230C                     i2u364_41:
  5736   00230C  EF89  F011         	goto	i2l4927
  5737   002310                     i2u364_40:
  5738   002310  8E13               	bsf	(___xxtofl@arg+3)^0,7,c
  5739   002312                     i2l4927:
  5740   002312  C010  F006         	movff	___xxtofl@arg,?___xxtofl
  5741   002316  C011  F007         	movff	___xxtofl@arg+1,?___xxtofl+1
  5742   00231A  C012  F008         	movff	___xxtofl@arg+2,?___xxtofl+2
  5743   00231E  C013  F009         	movff	___xxtofl@arg+3,?___xxtofl+3
  5744   002322                     i2l1896:
  5745   002322  0012               	return		;funcret
  5746   002324                     __end_of___xxtofl:
  5747                           	callstack 0
  5748                           
  5749 ;; *************** function ___fltol *****************
  5750 ;; Defined at:
  5751 ;;		line 43 in file "C:\Program Files\Microchip\xc8\v2.45\pic\sources\c99\common\fltol.c"
  5752 ;; Parameters:    Size  Location     Type
  5753 ;;  f1              4    4[BANK0 ] unsigned char 
  5754 ;; Auto vars:     Size  Location     Type
  5755 ;;  exp1            1   13[BANK0 ] unsigned char 
  5756 ;;  sign1           1   12[BANK0 ] unsigned char 
  5757 ;; Return value:  Size  Location     Type
  5758 ;;                  4    4[BANK0 ] long 
  5759 ;; Registers used:
  5760 ;;		wreg, status,2, status,0
  5761 ;; Tracked objects:
  5762 ;;		On entry : 0/0
  5763 ;;		On exit  : 0/0
  5764 ;;		Unchanged: 0/0
  5765 ;; Data sizes:     COMRAM   BANK0   BANK1   BANK2   BANK3   BANK4   BANK5   BANK6   BANK7   BANK8   BANK9  BANK10  BANK1
      +1  BANK12  BANK13  BANK14  BANK15
  5766 ;;      Params:         0       4       0       0       0       0       0       0       0       0       0       0       
      +0       0       0       0       0
  5767 ;;      Locals:         0       2       0       0       0       0       0       0       0       0       0       0       
      +0       0       0       0       0
  5768 ;;      Temps:          0       4       0       0       0       0       0       0       0       0       0       0       
      +0       0       0       0       0
  5769 ;;      Totals:         0      10       0       0       0       0       0       0       0       0       0       0       
      +0       0       0       0       0
  5770 ;;Total ram usage:       10 bytes
  5771 ;; Hardware stack levels used: 1
  5772 ;; This function calls:
  5773 ;;		Nothing
  5774 ;; This function is called by:
  5775 ;;		_INTERRUPT_InterruptManager
  5776 ;; This function uses a non-reentrant model
  5777 ;;
  5778                           
  5779                           	psect	text34
  5780   002324                     __ptext34:
  5781                           	callstack 0
  5782   002324                     ___fltol:
  5783                           	callstack 26
  5784   002324  0100               	movlb	0	; () banked
  5785   002326  35DD               	rlcf	(___fltol@f1+2)& (0+255),w,b
  5786   002328  35DE               	rlcf	(___fltol@f1+3)& (0+255),w,b
  5787   00232A  6FE4               	movwf	___fltol@exp1& (0+255),b
  5788   00232C  51E4               	movf	___fltol@exp1& (0+255),w,b
  5789   00232E  A4D8               	btfss	status,2,c
  5790   002330  EF9C  F011         	goto	i2u348_41
  5791   002334  EF9E  F011         	goto	i2u348_40
  5792   002338                     i2u348_41:
  5793   002338  EFA8  F011         	goto	i2l4847
  5794   00233C                     i2u348_40:
  5795   00233C                     i2l4843:
  5796                           
  5797                           ; BSR set to: 0
  5798   00233C  0E00               	movlw	0
  5799   00233E  6FDB               	movwf	?___fltol& (0+255),b
  5800   002340  0E00               	movlw	0
  5801   002342  6FDC               	movwf	(?___fltol+1)& (0+255),b
  5802   002344  0E00               	movlw	0
  5803   002346  6FDD               	movwf	(?___fltol+2)& (0+255),b
  5804   002348  0E00               	movlw	0
  5805   00234A  6FDE               	movwf	(?___fltol+3)& (0+255),b
  5806   00234C  EF15  F012         	goto	i2l1535
  5807   002350                     i2l4847:
  5808                           
  5809                           ; BSR set to: 0
  5810   002350  C0DB  F0DF         	movff	___fltol@f1,??___fltol
  5811   002354  C0DC  F0E0         	movff	___fltol@f1+1,??___fltol+1
  5812   002358  C0DD  F0E1         	movff	___fltol@f1+2,??___fltol+2
  5813   00235C  C0DE  F0E2         	movff	___fltol@f1+3,??___fltol+3
  5814   002360  0E20               	movlw	32
  5815   002362  EFB8  F011         	goto	i2u349_40
  5816   002366                     i2u349_45:
  5817   002366  90D8               	bcf	status,0,c
  5818   002368  33E2               	rrcf	(??___fltol+3)& (0+255),f,b
  5819   00236A  33E1               	rrcf	(??___fltol+2)& (0+255),f,b
  5820   00236C  33E0               	rrcf	(??___fltol+1)& (0+255),f,b
  5821   00236E  33DF               	rrcf	??___fltol& (0+255),f,b
  5822   002370                     i2u349_40:
  5823   002370  2EE8               	decfsz	wreg,f,c
  5824   002372  EFB3  F011         	goto	i2u349_45
  5825   002376  51DF               	movf	??___fltol& (0+255),w,b
  5826   002378  6FE3               	movwf	___fltol@sign1& (0+255),b
  5827   00237A                     
  5828                           ; BSR set to: 0
  5829   00237A  8FDD               	bsf	(___fltol@f1+2)& (0+255),7,b
  5830   00237C                     
  5831                           ; BSR set to: 0
  5832   00237C  0EFF               	movlw	255
  5833   00237E  17DB               	andwf	___fltol@f1& (0+255),f,b
  5834   002380  0EFF               	movlw	255
  5835   002382  17DC               	andwf	(___fltol@f1+1)& (0+255),f,b
  5836   002384  0EFF               	movlw	255
  5837   002386  17DD               	andwf	(___fltol@f1+2)& (0+255),f,b
  5838   002388  0E00               	movlw	0
  5839   00238A  17DE               	andwf	(___fltol@f1+3)& (0+255),f,b
  5840   00238C                     
  5841                           ; BSR set to: 0
  5842   00238C  0E96               	movlw	150
  5843   00238E  5FE4               	subwf	___fltol@exp1& (0+255),f,b
  5844   002390                     
  5845                           ; BSR set to: 0
  5846   002390  BFE4               	btfsc	___fltol@exp1& (0+255),7,b
  5847   002392  EFCF  F011         	goto	i2u350_40
  5848   002396  EFCD  F011         	goto	i2u350_41
  5849   00239A                     i2u350_41:
  5850   00239A  EFE5  F011         	goto	i2l4867
  5851   00239E                     i2u350_40:
  5852   00239E                     
  5853                           ; BSR set to: 0
  5854   00239E  51E4               	movf	___fltol@exp1& (0+255),w,b
  5855   0023A0  0A80               	xorlw	128
  5856   0023A2  0F97               	addlw	151
  5857   0023A4  B0D8               	btfsc	status,0,c
  5858   0023A6  EFD7  F011         	goto	i2u351_41
  5859   0023AA  EFD9  F011         	goto	i2u351_40
  5860   0023AE                     i2u351_41:
  5861   0023AE  EFDB  F011         	goto	i2l4863
  5862   0023B2                     i2u351_40:
  5863   0023B2  EF9E  F011         	goto	i2l4843
  5864   0023B6                     i2l4863:
  5865                           
  5866                           ; BSR set to: 0
  5867   0023B6  90D8               	bcf	status,0,c
  5868   0023B8  33DE               	rrcf	(___fltol@f1+3)& (0+255),f,b
  5869   0023BA  33DD               	rrcf	(___fltol@f1+2)& (0+255),f,b
  5870   0023BC  33DC               	rrcf	(___fltol@f1+1)& (0+255),f,b
  5871   0023BE  33DB               	rrcf	___fltol@f1& (0+255),f,b
  5872   0023C0                     
  5873                           ; BSR set to: 0
  5874   0023C0  3FE4               	incfsz	___fltol@exp1& (0+255),f,b
  5875   0023C2  EFDB  F011         	goto	i2l4863
  5876   0023C6  EFFD  F011         	goto	i2l4877
  5877   0023CA                     i2l4867:
  5878                           
  5879                           ; BSR set to: 0
  5880   0023CA  0E1F               	movlw	31
  5881   0023CC  65E4               	cpfsgt	___fltol@exp1& (0+255),b
  5882   0023CE  EFEB  F011         	goto	i2u352_41
  5883   0023D2  EFED  F011         	goto	i2u352_40
  5884   0023D6                     i2u352_41:
  5885   0023D6  EFF5  F011         	goto	i2l4875
  5886   0023DA                     i2u352_40:
  5887   0023DA  EF9E  F011         	goto	i2l4843
  5888   0023DE                     i2l4873:
  5889                           
  5890                           ; BSR set to: 0
  5891   0023DE  90D8               	bcf	status,0,c
  5892   0023E0  37DB               	rlcf	___fltol@f1& (0+255),f,b
  5893   0023E2  37DC               	rlcf	(___fltol@f1+1)& (0+255),f,b
  5894   0023E4  37DD               	rlcf	(___fltol@f1+2)& (0+255),f,b
  5895   0023E6  37DE               	rlcf	(___fltol@f1+3)& (0+255),f,b
  5896   0023E8  07E4               	decf	___fltol@exp1& (0+255),f,b
  5897   0023EA                     i2l4875:
  5898                           
  5899                           ; BSR set to: 0
  5900   0023EA  51E4               	movf	___fltol@exp1& (0+255),w,b
  5901   0023EC  A4D8               	btfss	status,2,c
  5902   0023EE  EFFB  F011         	goto	i2u353_41
  5903   0023F2  EFFD  F011         	goto	i2u353_40
  5904   0023F6                     i2u353_41:
  5905   0023F6  EFEF  F011         	goto	i2l4873
  5906   0023FA                     i2u353_40:
  5907   0023FA                     i2l4877:
  5908                           
  5909                           ; BSR set to: 0
  5910   0023FA  51E3               	movf	___fltol@sign1& (0+255),w,b
  5911   0023FC  B4D8               	btfsc	status,2,c
  5912   0023FE  EF03  F012         	goto	i2u354_41
  5913   002402  EF05  F012         	goto	i2u354_40
  5914   002406                     i2u354_41:
  5915   002406  EF0D  F012         	goto	i2l4881
  5916   00240A                     i2u354_40:
  5917   00240A                     
  5918                           ; BSR set to: 0
  5919   00240A  1FDE               	comf	(___fltol@f1+3)& (0+255),f,b
  5920   00240C  1FDD               	comf	(___fltol@f1+2)& (0+255),f,b
  5921   00240E  1FDC               	comf	(___fltol@f1+1)& (0+255),f,b
  5922   002410  6DDB               	negf	___fltol@f1& (0+255),b
  5923   002412  0E00               	movlw	0
  5924   002414  23DC               	addwfc	(___fltol@f1+1)& (0+255),f,b
  5925   002416  23DD               	addwfc	(___fltol@f1+2)& (0+255),f,b
  5926   002418  23DE               	addwfc	(___fltol@f1+3)& (0+255),f,b
  5927   00241A                     i2l4881:
  5928                           
  5929                           ; BSR set to: 0
  5930   00241A  C0DB  F0DB         	movff	___fltol@f1,?___fltol
  5931   00241E  C0DC  F0DC         	movff	___fltol@f1+1,?___fltol+1
  5932   002422  C0DD  F0DD         	movff	___fltol@f1+2,?___fltol+2
  5933   002426  C0DE  F0DE         	movff	___fltol@f1+3,?___fltol+3
  5934   00242A                     i2l1535:
  5935                           
  5936                           ; BSR set to: 0
  5937   00242A  0012               	return		;funcret
  5938   00242C                     __end_of___fltol:
  5939                           	callstack 0
  5940                           
  5941 ;; *************** function ___flge *****************
  5942 ;; Defined at:
  5943 ;;		line 4 in file "C:\Program Files\Microchip\xc8\v2.45\pic\sources\c99\common\flge.c"
  5944 ;; Parameters:    Size  Location     Type
  5945 ;;  ff1             4    0[COMRAM] long 
  5946 ;;  ff2             4    4[COMRAM] long 
  5947 ;; Auto vars:     Size  Location     Type
  5948 ;;		None
  5949 ;; Return value:  Size  Location     Type
  5950 ;;		None               void
  5951 ;; Registers used:
  5952 ;;		wreg, status,2, status,0
  5953 ;; Tracked objects:
  5954 ;;		On entry : 0/0
  5955 ;;		On exit  : 0/0
  5956 ;;		Unchanged: 0/0
  5957 ;; Data sizes:     COMRAM   BANK0   BANK1   BANK2   BANK3   BANK4   BANK5   BANK6   BANK7   BANK8   BANK9  BANK10  BANK1
      +1  BANK12  BANK13  BANK14  BANK15
  5958 ;;      Params:         8       0       0       0       0       0       0       0       0       0       0       0       
      +0       0       0       0       0
  5959 ;;      Locals:         0       0       0       0       0       0       0       0       0       0       0       0       
      +0       0       0       0       0
  5960 ;;      Temps:          4       0       0       0       0       0       0       0       0       0       0       0       
      +0       0       0       0       0
  5961 ;;      Totals:        12       0       0       0       0       0       0       0       0       0       0       0       
      +0       0       0       0       0
  5962 ;;Total ram usage:       12 bytes
  5963 ;; Hardware stack levels used: 1
  5964 ;; This function calls:
  5965 ;;		Nothing
  5966 ;; This function is called by:
  5967 ;;		_INTERRUPT_InterruptManager
  5968 ;; This function uses a non-reentrant model
  5969 ;;
  5970                           
  5971                           	psect	text35
  5972   00242C                     __ptext35:
  5973                           	callstack 0
  5974   00242C                     ___flge:
  5975                           	callstack 26
  5976   00242C  0E00               	movlw	0
  5977   00242E  1401               	andwf	___flge@ff1^0,w,c
  5978   002430  6E09               	movwf	??___flge^0,c
  5979   002432  0E00               	movlw	0
  5980   002434  1402               	andwf	(___flge@ff1+1)^0,w,c
  5981   002436  6E0A               	movwf	(??___flge+1)^0,c
  5982   002438  0E80               	movlw	128
  5983   00243A  1403               	andwf	(___flge@ff1+2)^0,w,c
  5984   00243C  6E0B               	movwf	(??___flge+2)^0,c
  5985   00243E  0E7F               	movlw	127
  5986   002440  1404               	andwf	(___flge@ff1+3)^0,w,c
  5987   002442  6E0C               	movwf	(??___flge+3)^0,c
  5988   002444  5009               	movf	??___flge^0,w,c
  5989   002446  100A               	iorwf	(??___flge+1)^0,w,c
  5990   002448  100B               	iorwf	(??___flge+2)^0,w,c
  5991   00244A  100C               	iorwf	(??___flge+3)^0,w,c
  5992   00244C  A4D8               	btfss	status,2,c
  5993   00244E  EF2B  F012         	goto	i2u343_41
  5994   002452  EF2D  F012         	goto	i2u343_40
  5995   002456                     i2u343_41:
  5996   002456  EF35  F012         	goto	i2l4823
  5997   00245A                     i2u343_40:
  5998   00245A  0E00               	movlw	0
  5999   00245C  6E01               	movwf	___flge@ff1^0,c
  6000   00245E  0E00               	movlw	0
  6001   002460  6E02               	movwf	(___flge@ff1+1)^0,c
  6002   002462  0E00               	movlw	0
  6003   002464  6E03               	movwf	(___flge@ff1+2)^0,c
  6004   002466  0E00               	movlw	0
  6005   002468  6E04               	movwf	(___flge@ff1+3)^0,c
  6006   00246A                     i2l4823:
  6007   00246A  0E00               	movlw	0
  6008   00246C  1405               	andwf	___flge@ff2^0,w,c
  6009   00246E  6E09               	movwf	??___flge^0,c
  6010   002470  0E00               	movlw	0
  6011   002472  1406               	andwf	(___flge@ff2+1)^0,w,c
  6012   002474  6E0A               	movwf	(??___flge+1)^0,c
  6013   002476  0E80               	movlw	128
  6014   002478  1407               	andwf	(___flge@ff2+2)^0,w,c
  6015   00247A  6E0B               	movwf	(??___flge+2)^0,c
  6016   00247C  0E7F               	movlw	127
  6017   00247E  1408               	andwf	(___flge@ff2+3)^0,w,c
  6018   002480  6E0C               	movwf	(??___flge+3)^0,c
  6019   002482  5009               	movf	??___flge^0,w,c
  6020   002484  100A               	iorwf	(??___flge+1)^0,w,c
  6021   002486  100B               	iorwf	(??___flge+2)^0,w,c
  6022   002488  100C               	iorwf	(??___flge+3)^0,w,c
  6023   00248A  A4D8               	btfss	status,2,c
  6024   00248C  EF4A  F012         	goto	i2u344_41
  6025   002490  EF4C  F012         	goto	i2u344_40
  6026   002494                     i2u344_41:
  6027   002494  EF54  F012         	goto	i2l4827
  6028   002498                     i2u344_40:
  6029   002498  0E00               	movlw	0
  6030   00249A  6E05               	movwf	___flge@ff2^0,c
  6031   00249C  0E00               	movlw	0
  6032   00249E  6E06               	movwf	(___flge@ff2+1)^0,c
  6033   0024A0  0E00               	movlw	0
  6034   0024A2  6E07               	movwf	(___flge@ff2+2)^0,c
  6035   0024A4  0E00               	movlw	0
  6036   0024A6  6E08               	movwf	(___flge@ff2+3)^0,c
  6037   0024A8                     i2l4827:
  6038   0024A8  AE04               	btfss	(___flge@ff1+3)^0,7,c
  6039   0024AA  EF59  F012         	goto	i2u345_41
  6040   0024AE  EF5B  F012         	goto	i2u345_40
  6041   0024B2                     i2u345_41:
  6042   0024B2  EF64  F012         	goto	i2l4831
  6043   0024B6                     i2u345_40:
  6044   0024B6  6C01               	negf	___flge@ff1^0,c
  6045   0024B8  1E02               	comf	(___flge@ff1+1)^0,f,c
  6046   0024BA  B0D8               	btfsc	status,0,c
  6047   0024BC  2A02               	incf	(___flge@ff1+1)^0,f,c
  6048   0024BE  1E03               	comf	(___flge@ff1+2)^0,f,c
  6049   0024C0  B0D8               	btfsc	status,0,c
  6050   0024C2  2A03               	incf	(___flge@ff1+2)^0,f,c
  6051   0024C4  0E80               	movlw	128
  6052   0024C6  5604               	subfwb	(___flge@ff1+3)^0,f,c
  6053   0024C8                     i2l4831:
  6054   0024C8  AE08               	btfss	(___flge@ff2+3)^0,7,c
  6055   0024CA  EF69  F012         	goto	i2u346_41
  6056   0024CE  EF6B  F012         	goto	i2u346_40
  6057   0024D2                     i2u346_41:
  6058   0024D2  EF74  F012         	goto	i2l1503
  6059   0024D6                     i2u346_40:
  6060   0024D6  6C05               	negf	___flge@ff2^0,c
  6061   0024D8  1E06               	comf	(___flge@ff2+1)^0,f,c
  6062   0024DA  B0D8               	btfsc	status,0,c
  6063   0024DC  2A06               	incf	(___flge@ff2+1)^0,f,c
  6064   0024DE  1E07               	comf	(___flge@ff2+2)^0,f,c
  6065   0024E0  B0D8               	btfsc	status,0,c
  6066   0024E2  2A07               	incf	(___flge@ff2+2)^0,f,c
  6067   0024E4  0E80               	movlw	128
  6068   0024E6  5608               	subfwb	(___flge@ff2+3)^0,f,c
  6069   0024E8                     i2l1503:
  6070   0024E8  0E00               	movlw	0
  6071   0024EA  1A01               	xorwf	___flge@ff1^0,f,c
  6072   0024EC  0E00               	movlw	0
  6073   0024EE  1A02               	xorwf	(___flge@ff1+1)^0,f,c
  6074   0024F0  0E00               	movlw	0
  6075   0024F2  1A03               	xorwf	(___flge@ff1+2)^0,f,c
  6076   0024F4  0E80               	movlw	128
  6077   0024F6  1A04               	xorwf	(___flge@ff1+3)^0,f,c
  6078   0024F8  0E00               	movlw	0
  6079   0024FA  1A05               	xorwf	___flge@ff2^0,f,c
  6080   0024FC  0E00               	movlw	0
  6081   0024FE  1A06               	xorwf	(___flge@ff2+1)^0,f,c
  6082   002500  0E00               	movlw	0
  6083   002502  1A07               	xorwf	(___flge@ff2+2)^0,f,c
  6084   002504  0E80               	movlw	128
  6085   002506  1A08               	xorwf	(___flge@ff2+3)^0,f,c
  6086   002508  5005               	movf	___flge@ff2^0,w,c
  6087   00250A  5C01               	subwf	___flge@ff1^0,w,c
  6088   00250C  5006               	movf	(___flge@ff2+1)^0,w,c
  6089   00250E  5802               	subwfb	(___flge@ff1+1)^0,w,c
  6090   002510  5007               	movf	(___flge@ff2+2)^0,w,c
  6091   002512  5803               	subwfb	(___flge@ff1+2)^0,w,c
  6092   002514  5008               	movf	(___flge@ff2+3)^0,w,c
  6093   002516  5804               	subwfb	(___flge@ff1+3)^0,w,c
  6094   002518  B0D8               	btfsc	status,0,c
  6095   00251A  EF91  F012         	goto	i2u347_41
  6096   00251E  EF93  F012         	goto	i2u347_40
  6097   002522                     i2u347_41:
  6098   002522  EF96  F012         	goto	i2l4837
  6099   002526                     i2u347_40:
  6100   002526  90D8               	bcf	status,0,c
  6101   002528  EF97  F012         	goto	i2l1508
  6102   00252C                     i2l4837:
  6103   00252C  80D8               	bsf	status,0,c
  6104   00252E                     i2l1508:
  6105   00252E  0012               	return		;funcret
  6106   002530                     __end_of___flge:
  6107                           	callstack 0
  6108                           
  6109 ;; *************** function _UART_SendString *****************
  6110 ;; Defined at:
  6111 ;;		line 76 in file "mcc_generated_files/interrupt_manager.c"
  6112 ;; Parameters:    Size  Location     Type
  6113 ;;  str             1    1[COMRAM] PTR const unsigned char 
  6114 ;;		 -> buffer(20), 
  6115 ;; Auto vars:     Size  Location     Type
  6116 ;;		None
  6117 ;; Return value:  Size  Location     Type
  6118 ;;                  1    wreg      void 
  6119 ;; Registers used:
  6120 ;;		wreg, fsr2l, fsr2h, status,2, status,0, cstack
  6121 ;; Tracked objects:
  6122 ;;		On entry : 0/0
  6123 ;;		On exit  : 0/0
  6124 ;;		Unchanged: 0/0
  6125 ;; Data sizes:     COMRAM   BANK0   BANK1   BANK2   BANK3   BANK4   BANK5   BANK6   BANK7   BANK8   BANK9  BANK10  BANK1
      +1  BANK12  BANK13  BANK14  BANK15
  6126 ;;      Params:         1       0       0       0       0       0       0       0       0       0       0       0       
      +0       0       0       0       0
  6127 ;;      Locals:         0       0       0       0       0       0       0       0       0       0       0       0       
      +0       0       0       0       0
  6128 ;;      Temps:          0       0       0       0       0       0       0       0       0       0       0       0       
      +0       0       0       0       0
  6129 ;;      Totals:         1       0       0       0       0       0       0       0       0       0       0       0       
      +0       0       0       0       0
  6130 ;;Total ram usage:        1 bytes
  6131 ;; Hardware stack levels used: 1
  6132 ;; Hardware stack levels required when called: 1
  6133 ;; This function calls:
  6134 ;;		_UART1_Write
  6135 ;; This function is called by:
  6136 ;;		_INTERRUPT_InterruptManager
  6137 ;; This function uses a non-reentrant model
  6138 ;;
  6139                           
  6140                           	psect	text36
  6141   002C0E                     __ptext36:
  6142                           	callstack 0
  6143   002C0E                     _UART_SendString:
  6144                           	callstack 25
  6145   002C0E                     
  6146                           ;mcc_generated_files/interrupt_manager.c: 77:     while (*str){
  6147   002C0E  EF10  F016         	goto	i2l4795
  6148   002C12                     i2l4791:
  6149                           
  6150                           ;mcc_generated_files/interrupt_manager.c: 78:         UART1_Write(*str);
  6151   002C12  5002               	movf	UART_SendString@str^0,w,c
  6152   002C14  6ED9               	movwf	fsr2l,c
  6153   002C16  6ADA               	clrf	fsr2h,c
  6154   002C18  50DF               	movf	indf2,w,c
  6155   002C1A  EC5C  F016         	call	_UART1_Write
  6156   002C1E                     
  6157                           ;mcc_generated_files/interrupt_manager.c: 79:         str++;
  6158   002C1E  2A02               	incf	UART_SendString@str^0,f,c
  6159   002C20                     i2l4795:
  6160                           
  6161                           ;mcc_generated_files/interrupt_manager.c: 77:     while (*str){
  6162   002C20  5002               	movf	UART_SendString@str^0,w,c
  6163   002C22  6ED9               	movwf	fsr2l,c
  6164   002C24  6ADA               	clrf	fsr2h,c
  6165   002C26  50DF               	movf	indf2,w,c
  6166   002C28  A4D8               	btfss	status,2,c
  6167   002C2A  EF19  F016         	goto	i2u340_41
  6168   002C2E  EF1B  F016         	goto	i2u340_40
  6169   002C32                     i2u340_41:
  6170   002C32  EF09  F016         	goto	i2l4791
  6171   002C36                     i2u340_40:
  6172   002C36  0012               	return		;funcret
  6173   002C38                     __end_of_UART_SendString:
  6174                           	callstack 0
  6175                           
  6176 ;; *************** function _UART1_Write *****************
  6177 ;; Defined at:
  6178 ;;		line 170 in file "mcc_generated_files/uart1.c"
  6179 ;; Parameters:    Size  Location     Type
  6180 ;;  txData          1    wreg     unsigned char 
  6181 ;; Auto vars:     Size  Location     Type
  6182 ;;  txData          1    0[COMRAM] unsigned char 
  6183 ;; Return value:  Size  Location     Type
  6184 ;;                  1    wreg      void 
  6185 ;; Registers used:
  6186 ;;		wreg
  6187 ;; Tracked objects:
  6188 ;;		On entry : 0/0
  6189 ;;		On exit  : 0/0
  6190 ;;		Unchanged: 0/0
  6191 ;; Data sizes:     COMRAM   BANK0   BANK1   BANK2   BANK3   BANK4   BANK5   BANK6   BANK7   BANK8   BANK9  BANK10  BANK1
      +1  BANK12  BANK13  BANK14  BANK15
  6192 ;;      Params:         0       0       0       0       0       0       0       0       0       0       0       0       
      +0       0       0       0       0
  6193 ;;      Locals:         1       0       0       0       0       0       0       0       0       0       0       0       
      +0       0       0       0       0
  6194 ;;      Temps:          0       0       0       0       0       0       0       0       0       0       0       0       
      +0       0       0       0       0
  6195 ;;      Totals:         1       0       0       0       0       0       0       0       0       0       0       0       
      +0       0       0       0       0
  6196 ;;Total ram usage:        1 bytes
  6197 ;; Hardware stack levels used: 1
  6198 ;; This function calls:
  6199 ;;		Nothing
  6200 ;; This function is called by:
  6201 ;;		_putch
  6202 ;;		_UART_SendString
  6203 ;; This function uses a non-reentrant model
  6204 ;;
  6205                           
  6206                           	psect	text37
  6207   002CB8                     __ptext37:
  6208                           	callstack 0
  6209   002CB8                     _UART1_Write:
  6210                           	callstack 21
  6211                           
  6212                           ;incstack = 0
  6213                           ;UART1_Write@txData stored from wreg
  6214   002CB8  6E01               	movwf	UART1_Write@txData^0,c
  6215   002CBA                     i2l352:
  6216                           
  6217                           ;mcc_generated_files/uart1.c: 172:     while(0 == PIR3bits.U1TXIF)
  6218   002CBA  0139               	movlb	57	; () banked
  6219   002CBC  A9A3               	btfss	163,4,b	;volatile
  6220   002CBE  EF63  F016         	goto	i2u212_41
  6221   002CC2  EF65  F016         	goto	i2u212_40
  6222   002CC6                     i2u212_41:
  6223   002CC6  EF5D  F016         	goto	i2l352
  6224   002CCA                     i2u212_40:
  6225   002CCA                     
  6226                           ; BSR set to: 57
  6227                           ;mcc_generated_files/uart1.c: 176:     U1TXB = txData;
  6228   002CCA  0060  F007  FDEA   	movff	UART1_Write@txData,15850	;volatile
  6229   002CD0                     
  6230                           ; BSR set to: 57
  6231   002CD0  0012               	return		;funcret
  6232   002CD2                     __end_of_UART1_Write:
  6233                           	callstack 0
  6234                           
  6235 ;; *************** function _TMR6_ISR *****************
  6236 ;; Defined at:
  6237 ;;		line 165 in file "mcc_generated_files/tmr6.c"
  6238 ;; Parameters:    Size  Location     Type
  6239 ;;		None
  6240 ;; Auto vars:     Size  Location     Type
  6241 ;;		None
  6242 ;; Return value:  Size  Location     Type
  6243 ;;                  1    wreg      void 
  6244 ;; Registers used:
  6245 ;;		wreg, status,2, status,0, pcl, pclath, pclatu, tosl, cstack
  6246 ;; Tracked objects:
  6247 ;;		On entry : 0/0
  6248 ;;		On exit  : 0/0
  6249 ;;		Unchanged: 0/0
  6250 ;; Data sizes:     COMRAM   BANK0   BANK1   BANK2   BANK3   BANK4   BANK5   BANK6   BANK7   BANK8   BANK9  BANK10  BANK1
      +1  BANK12  BANK13  BANK14  BANK15
  6251 ;;      Params:         0       0       0       0       0       0       0       0       0       0       0       0       
      +0       0       0       0       0
  6252 ;;      Locals:         0       0       0       0       0       0       0       0       0       0       0       0       
      +0       0       0       0       0
  6253 ;;      Temps:          0       0       0       0       0       0       0       0       0       0       0       0       
      +0       0       0       0       0
  6254 ;;      Totals:         0       0       0       0       0       0       0       0       0       0       0       0       
      +0       0       0       0       0
  6255 ;;Total ram usage:        0 bytes
  6256 ;; Hardware stack levels used: 1
  6257 ;; Hardware stack levels required when called: 1
  6258 ;; This function calls:
  6259 ;;		NULL
  6260 ;;		_TMR6_DefaultInterruptHandler
  6261 ;; This function is called by:
  6262 ;;		_INTERRUPT_InterruptManager
  6263 ;; This function uses a non-reentrant model
  6264 ;;
  6265                           
  6266                           	psect	text38
  6267   002B7C                     __ptext38:
  6268                           	callstack 0
  6269   002B7C                     _TMR6_ISR:
  6270                           	callstack 25
  6271   002B7C                     
  6272                           ;mcc_generated_files/tmr6.c: 169:     PIR9bits.TMR6IF = 0;
  6273   002B7C  0139               	movlb	57	; () banked
  6274   002B7E  91A9               	bcf	169,0,b	;volatile
  6275   002B80                     
  6276                           ; BSR set to: 57
  6277                           ;mcc_generated_files/tmr6.c: 171:     if(TMR6_InterruptHandler)
  6278   002B80  0100               	movlb	0	; () banked
  6279   002B82  51EF               	movf	_TMR6_InterruptHandler& (0+255),w,b
  6280   002B84  11F0               	iorwf	(_TMR6_InterruptHandler+1)& (0+255),w,b
  6281   002B86  B4D8               	btfsc	status,2,c
  6282   002B88  EFC8  F015         	goto	i2u338_41
  6283   002B8C  EFCA  F015         	goto	i2u338_40
  6284   002B90                     i2u338_41:
  6285   002B90  EFD6  F015         	goto	i2l1133
  6286   002B94                     i2u338_40:
  6287   002B94                     
  6288                           ; BSR set to: 0
  6289                           ;mcc_generated_files/tmr6.c: 172:     {;mcc_generated_files/tmr6.c: 173:         TMR6_In
      +                          terruptHandler();
  6290   002B94  D802               	call	i2u339_48
  6291   002B96  EFD6  F015         	goto	i2u339_49
  6292   002B9A                     i2u339_48:
  6293   002B9A  0005               	push	
  6294   002B9C  6EFA               	movwf	pclath,c
  6295   002B9E  51EF               	movf	_TMR6_InterruptHandler& (0+255),w,b
  6296   002BA0  6EFD               	movwf	tosl,c
  6297   002BA2  51F0               	movf	(_TMR6_InterruptHandler+1)& (0+255),w,b
  6298   002BA4  6EFE               	movwf	tosh,c
  6299   002BA6  6AFF               	clrf	tosu,c
  6300   002BA8  50FA               	movf	pclath,w,c
  6301   002BAA  0012               	return		;indir
  6302   002BAC                     i2u339_49:
  6303   002BAC                     i2l1133:
  6304   002BAC  0012               	return		;funcret
  6305   002BAE                     __end_of_TMR6_ISR:
  6306                           	callstack 0
  6307                           
  6308 ;; *************** function _TMR6_DefaultInterruptHandler *****************
  6309 ;; Defined at:
  6310 ;;		line 182 in file "mcc_generated_files/tmr6.c"
  6311 ;; Parameters:    Size  Location     Type
  6312 ;;		None
  6313 ;; Auto vars:     Size  Location     Type
  6314 ;;		None
  6315 ;; Return value:  Size  Location     Type
  6316 ;;                  1    wreg      void 
  6317 ;; Registers used:
  6318 ;;		None
  6319 ;; Tracked objects:
  6320 ;;		On entry : 0/0
  6321 ;;		On exit  : 0/0
  6322 ;;		Unchanged: 0/0
  6323 ;; Data sizes:     COMRAM   BANK0   BANK1   BANK2   BANK3   BANK4   BANK5   BANK6   BANK7   BANK8   BANK9  BANK10  BANK1
      +1  BANK12  BANK13  BANK14  BANK15
  6324 ;;      Params:         0       0       0       0       0       0       0       0       0       0       0       0       
      +0       0       0       0       0
  6325 ;;      Locals:         0       0       0       0       0       0       0       0       0       0       0       0       
      +0       0       0       0       0
  6326 ;;      Temps:          0       0       0       0       0       0       0       0       0       0       0       0       
      +0       0       0       0       0
  6327 ;;      Totals:         0       0       0       0       0       0       0       0       0       0       0       0       
      +0       0       0       0       0
  6328 ;;Total ram usage:        0 bytes
  6329 ;; Hardware stack levels used: 1
  6330 ;; This function calls:
  6331 ;;		Nothing
  6332 ;; This function is called by:
  6333 ;;		_TMR6_Initialize
  6334 ;;		_TMR6_ISR
  6335 ;; This function uses a non-reentrant model
  6336 ;;
  6337                           
  6338                           	psect	text39
  6339   002D50                     __ptext39:
  6340                           	callstack 0
  6341   002D50                     _TMR6_DefaultInterruptHandler:
  6342                           	callstack 25
  6343   002D50  0012               	return		;funcret
  6344   002D52                     __end_of_TMR6_DefaultInterruptHandler:
  6345                           	callstack 0
  6346                           
  6347 ;; *************** function _ADCC_GetSingleConversion *****************
  6348 ;; Defined at:
  6349 ;;		line 137 in file "mcc_generated_files/adcc.c"
  6350 ;; Parameters:    Size  Location     Type
  6351 ;;  channel         1    wreg     enum E16239
  6352 ;; Auto vars:     Size  Location     Type
  6353 ;;  channel         1    4[COMRAM] enum E16239
  6354 ;; Return value:  Size  Location     Type
  6355 ;;                  2    0[COMRAM] unsigned short 
  6356 ;; Registers used:
  6357 ;;		wreg, status,2, status,0
  6358 ;; Tracked objects:
  6359 ;;		On entry : 0/0
  6360 ;;		On exit  : 0/0
  6361 ;;		Unchanged: 0/0
  6362 ;; Data sizes:     COMRAM   BANK0   BANK1   BANK2   BANK3   BANK4   BANK5   BANK6   BANK7   BANK8   BANK9  BANK10  BANK1
      +1  BANK12  BANK13  BANK14  BANK15
  6363 ;;      Params:         2       0       0       0       0       0       0       0       0       0       0       0       
      +0       0       0       0       0
  6364 ;;      Locals:         1       0       0       0       0       0       0       0       0       0       0       0       
      +0       0       0       0       0
  6365 ;;      Temps:          2       0       0       0       0       0       0       0       0       0       0       0       
      +0       0       0       0       0
  6366 ;;      Totals:         5       0       0       0       0       0       0       0       0       0       0       0       
      +0       0       0       0       0
  6367 ;;Total ram usage:        5 bytes
  6368 ;; Hardware stack levels used: 1
  6369 ;; This function calls:
  6370 ;;		Nothing
  6371 ;; This function is called by:
  6372 ;;		_INTERRUPT_InterruptManager
  6373 ;; This function uses a non-reentrant model
  6374 ;;
  6375                           
  6376                           	psect	text40
  6377   002BAE                     __ptext40:
  6378                           	callstack 0
  6379   002BAE                     _ADCC_GetSingleConversion:
  6380                           	callstack 26
  6381                           
  6382                           ;incstack = 0
  6383                           ;ADCC_GetSingleConversion@channel stored from wreg
  6384   002BAE  6E05               	movwf	ADCC_GetSingleConversion@channel^0,c
  6385   002BB0                     
  6386                           ;mcc_generated_files/adcc.c: 137: adc_result_t ADCC_GetSingleConversion(adcc_channel_t c
      +                          hannel);mcc_generated_files/adcc.c: 138: {;mcc_generated_files/adcc.c: 140:     ADPCH = 
      +                          channel;
  6387   002BB0  0060  F017  FEF1   	movff	ADCC_GetSingleConversion@channel,16113	;volatile
  6388   002BB6                     
  6389                           ;mcc_generated_files/adcc.c: 143:     ADCON0bits.ADON = 1;
  6390   002BB6  013E               	movlb	62	; () banked
  6391   002BB8  8FF8               	bsf	248,7,b	;volatile
  6392   002BBA                     
  6393                           ; BSR set to: 62
  6394                           ;mcc_generated_files/adcc.c: 146:     ADCON0bits.ADCONT = 0;
  6395   002BBA  9DF8               	bcf	248,6,b	;volatile
  6396   002BBC                     
  6397                           ; BSR set to: 62
  6398                           ;mcc_generated_files/adcc.c: 149:     ADCON0bits.ADGO = 1;
  6399   002BBC  81F8               	bsf	248,0,b	;volatile
  6400   002BBE                     i2l480:
  6401                           
  6402                           ; BSR set to: 62
  6403                           ;mcc_generated_files/adcc.c: 153:     while (ADCON0bits.ADGO)
  6404   002BBE  B1F8               	btfsc	248,0,b	;volatile
  6405   002BC0  EFE4  F015         	goto	i2u334_41
  6406   002BC4  EFE6  F015         	goto	i2u334_40
  6407   002BC8                     i2u334_41:
  6408   002BC8  EFDF  F015         	goto	i2l480
  6409   002BCC                     i2u334_40:
  6410   002BCC                     
  6411                           ; BSR set to: 62
  6412                           ;mcc_generated_files/adcc.c: 159:     return ((adc_result_t)((ADRESH << 8) + ADRESL));
  6413   002BCC  51F0               	movf	240,w,b	;volatile
  6414   002BCE  6E04               	movwf	(??_ADCC_GetSingleConversion+1)^0,c
  6415   002BD0  6A03               	clrf	??_ADCC_GetSingleConversion^0,c
  6416   002BD2  51EF               	movf	239,w,b	;volatile
  6417   002BD4  2403               	addwf	??_ADCC_GetSingleConversion^0,w,c
  6418   002BD6  6E01               	movwf	?_ADCC_GetSingleConversion^0,c
  6419   002BD8  0E00               	movlw	0
  6420   002BDA  2004               	addwfc	(??_ADCC_GetSingleConversion+1)^0,w,c
  6421   002BDC  6E02               	movwf	(?_ADCC_GetSingleConversion+1)^0,c
  6422   002BDE                     
  6423                           ; BSR set to: 62
  6424   002BDE  0012               	return		;funcret
  6425   002BE0                     __end_of_ADCC_GetSingleConversion:
  6426                           	callstack 0
  6427                           
  6428                           ;
  6429                           ; Interrupt Vector Table @ 0x8
  6430                           ;
  6431                           
  6432                           	psect	ivt0x8
  6433   000008                     __pivt0x8:
  6434                           	callstack 0
  6435   000008                     ivt0x8_base:
  6436                           	callstack 0
  6437                           
  6438                           ; high-priority vector
  6439   000008  EF89  F00E         	goto	_INTERRUPT_InterruptManager
  6440   000018                     	org	16
  6441                           
  6442                           ; low-priority vector
  6443   000018  00FF               	reset	
  6444                           
  6445                           	psect	text41
  6446   000000                     __ptext41:
  6447                           	callstack 0
  6448   000000                     
  6449                           	psect	rparam
  6450   000000                     
  6451                           	psect	config
  6452                           
  6453                           ;Config register CONFIG1L @ 0x300000
  6454                           ;	External Oscillator Selection
  6455                           ;	FEXTOSC = OFF, Oscillator not enabled
  6456                           ;	Reset Oscillator Selection
  6457                           ;	RSTOSC = HFINTOSC_64MHZ, HFINTOSC with HFFRQ = 64 MHz and CDIV = 1:1
  6458   300000                     	org	3145728
  6459   300000  8C                 	db	140
  6460                           
  6461                           ;Config register CONFIG1H @ 0x300001
  6462                           ;	Clock out Enable bit
  6463                           ;	CLKOUTEN = OFF, CLKOUT function is disabled
  6464                           ;	PRLOCKED One-Way Set Enable bit
  6465                           ;	PR1WAY = ON, PRLOCK bit can be cleared and set only once
  6466                           ;	Clock Switch Enable bit
  6467                           ;	CSWEN = ON, Writing to NOSC and NDIV is allowed
  6468                           ;	Fail-Safe Clock Monitor Enable bit
  6469                           ;	FCMEN = ON, Fail-Safe Clock Monitor enabled
  6470   300001                     	org	3145729
  6471   300001  FF                 	db	255
  6472                           
  6473                           ;Config register CONFIG2L @ 0x300002
  6474                           ;	MCLR Enable bit
  6475                           ;	MCLRE = EXTMCLR, If LVP = 0, MCLR pin is MCLR; If LVP = 1, RE3 pin function is MCLR
  6476                           ;	Power-up timer selection bits
  6477                           ;	PWRTS = PWRT_OFF, PWRT is disabled
  6478                           ;	Multi-vector enable bit
  6479                           ;	MVECEN = OFF, Interrupt contoller does not use vector table to prioritze interrupts
  6480                           ;	IVTLOCK bit One-way set enable bit
  6481                           ;	IVT1WAY = ON, IVTLOCK bit can be cleared and set only once
  6482                           ;	Low Power BOR Enable bit
  6483                           ;	LPBOREN = OFF, ULPBOR disabled
  6484                           ;	Brown-out Reset Enable bits
  6485                           ;	BOREN = SBORDIS, Brown-out Reset enabled , SBOREN bit is ignored
  6486   300002                     	org	3145730
  6487   300002  F7                 	db	247
  6488                           
  6489                           ;Config register CONFIG2H @ 0x300003
  6490                           ;	Brown-out Reset Voltage Selection bits
  6491                           ;	BORV = VBOR_2P45, Brown-out Reset Voltage (VBOR) set to 2.45V
  6492                           ;	ZCD Disable bit
  6493                           ;	ZCD = OFF, ZCD disabled. ZCD can be enabled by setting the ZCDSEN bit of ZCDCON
  6494                           ;	PPSLOCK bit One-Way Set Enable bit
  6495                           ;	PPS1WAY = ON, PPSLOCK bit can be cleared and set only once; PPS registers remain locke
      +                          d after one clear/set cycle
  6496                           ;	Stack Full/Underflow Reset Enable bit
  6497                           ;	STVREN = ON, Stack full/underflow will cause Reset
  6498                           ;	Debugger Enable bit
  6499                           ;	DEBUG = OFF, Background debugger disabled
  6500                           ;	Extended Instruction Set Enable bit
  6501                           ;	XINST = OFF, Extended Instruction Set and Indexed Addressing Mode disabled
  6502   300003                     	org	3145731
  6503   300003  FF                 	db	255
  6504                           
  6505                           ;Config register CONFIG3L @ 0x300004
  6506                           ;	WDT Period selection bits
  6507                           ;	WDTCPS = WDTCPS_31, Divider ratio 1:65536; software control of WDTPS
  6508                           ;	WDT operating mode
  6509                           ;	WDTE = OFF, WDT Disabled; SWDTEN is ignored
  6510   300004                     	org	3145732
  6511   300004  9F                 	db	159
  6512                           
  6513                           ;Config register CONFIG3H @ 0x300005
  6514                           ;	WDT Window Select bits
  6515                           ;	WDTCWS = WDTCWS_7, window always open (100%); software control; keyed access not requi
      +                          red
  6516                           ;	WDT input clock selector
  6517                           ;	WDTCCS = SC, Software Control
  6518   300005                     	org	3145733
  6519   300005  FF                 	db	255
  6520                           
  6521                           ;Config register CONFIG4L @ 0x300006
  6522                           ;	Boot Block Size selection bits
  6523                           ;	BBSIZE = BBSIZE_512, Boot Block size is 512 words
  6524                           ;	Boot Block enable bit
  6525                           ;	BBEN = OFF, Boot block disabled
  6526                           ;	Storage Area Flash enable bit
  6527                           ;	SAFEN = OFF, SAF disabled
  6528                           ;	Application Block write protection bit
  6529                           ;	WRTAPP = OFF, Application Block not write protected
  6530   300006                     	org	3145734
  6531   300006  FF                 	db	255
  6532                           
  6533                           ;Config register CONFIG4H @ 0x300007
  6534                           ;	Boot Block Write Protection bit
  6535                           ;	WRTB = OFF, Boot Block not write-protected
  6536                           ;	Configuration Register Write Protection bit
  6537                           ;	WRTC = OFF, Configuration registers not write-protected
  6538                           ;	Data EEPROM Write Protection bit
  6539                           ;	WRTD = OFF, Data EEPROM not write-protected
  6540                           ;	SAF Write protection bit
  6541                           ;	WRTSAF = OFF, SAF not Write Protected
  6542                           ;	Low Voltage Programming Enable bit
  6543                           ;	LVP = ON, Low voltage programming enabled. MCLR/VPP pin function is MCLR. MCLRE config
      +                          uration bit is ignored
  6544   300007                     	org	3145735
  6545   300007  FF                 	db	255
  6546                           
  6547                           ;Config register CONFIG5L @ 0x300008
  6548                           ;	PFM and Data EEPROM Code Protection bit
  6549                           ;	CP = OFF, PFM and Data EEPROM code protection disabled
  6550   300008                     	org	3145736
  6551   300008  FF                 	db	255
  6552                           
  6553                           ;Config register CONFIG5H @ 0x300009
  6554                           ;	unspecified, using default values
  6555   300009                     	org	3145737
  6556   300009  FF                 	db	255
  6557                           tosu	equ	0x3FFF
  6558                           tosh	equ	0x3FFE
  6559                           tosl	equ	0x3FFD
  6560                           stkptr	equ	0x3FFC
  6561                           pclatu	equ	0x3FFB
  6562                           pclath	equ	0x3FFA
  6563                           pcl	equ	0x3FF9
  6564                           tblptru	equ	0x3FF8
  6565                           tblptrh	equ	0x3FF7
  6566                           tblptrl	equ	0x3FF6
  6567                           tablat	equ	0x3FF5
  6568                           prodh	equ	0x3FF4
  6569                           prodl	equ	0x3FF3
  6570                           indf0	equ	0x3FEF
  6571                           postinc0	equ	0x3FEE
  6572                           postdec0	equ	0x3FED
  6573                           preinc0	equ	0x3FEC
  6574                           plusw0	equ	0x3FEB
  6575                           fsr0h	equ	0x3FEA
  6576                           fsr0l	equ	0x3FE9
  6577                           wreg	equ	0x3FE8
  6578                           indf1	equ	0x3FE7
  6579                           postinc1	equ	0x3FE6
  6580                           postdec1	equ	0x3FE5
  6581                           preinc1	equ	0x3FE4
  6582                           plusw1	equ	0x3FE3
  6583                           fsr1h	equ	0x3FE2
  6584                           fsr1l	equ	0x3FE1
  6585                           bsr	equ	0x3FE0
  6586                           indf2	equ	0x3FDF
  6587                           postinc2	equ	0x3FDE
  6588                           postdec2	equ	0x3FDD
  6589                           preinc2	equ	0x3FDC
  6590                           plusw2	equ	0x3FDB
  6591                           fsr2h	equ	0x3FDA
  6592                           fsr2l	equ	0x3FD9
  6593                           status	equ	0x3FD8

Data Sizes:
    Strings     50
    Constant    54
    Data        4
    BSS         664
    Persistent  8
    Stack       0

Auto Spaces:
    Space          Size  Autos    Used
    COMRAM           95     94      95
    BANK0           160     24     155
    BANK1           256      4      36
    BANK2           256      0       0
    BANK3           256      0       0
    BANK4           256      0       0
    BANK5           256      0       0
    BANK6           256      0       0
    BANK7           256      0       0
    BANK8           256      0       0
    BANK9           256      0       0
    BANK10          256      0       0
    BANK11          256      0       0
    BANK12          256      0       0
    BANK13          256      0       0
    BANK14          256      0       0
    BANK15          256      0       0

Pointer List with Targets:

    bufferBlock$data	PTR unsigned char  size(2) Largest target is 0

    cb$0	PTR void  size(2) Largest target is 5
		 -> I2C1_Read1ByteRegister@returnValue(COMRAM[1]), I2C1_Read2ByteRegister@returnValue(COMRAM[2]), I2C1_ReadDataBlock@bufferBlock(COMRAM[4]), I2C1_Write1ByteRegister@data(COMRAM[1]), 
		 -> I2C1_Write2ByteRegister@data(COMRAM[2]), NULL(NULL[0]), 

    cb$0	PTR void  size(2) Largest target is 5
		 -> I2C1_Read1ByteRegister@returnValue(COMRAM[1]), I2C1_Read2ByteRegister@returnValue(COMRAM[2]), I2C1_ReadDataBlock@bufferBlock(COMRAM[4]), I2C1_Write1ByteRegister@data(COMRAM[1]), 
		 -> I2C1_Write2ByteRegister@data(COMRAM[2]), NULL(NULL[0]), 

    f$.$buffer	PTR unsigned char  size(2) Largest target is 0

    f$.$source	PTR const unsigned char  size(2) Largest target is 0

    fputc@fp	PTR struct _IO_FILE size(1) Largest target is 12
		 -> sprintf@f(COMRAM[12]), 

    fputc@fp$.$buffer	PTR unsigned char  size(2) Largest target is 0

    fputc@fp$.$source	PTR const unsigned char  size(2) Largest target is 0

    I2C1_DO_RX_EMPTY$3506$0	PTR void  size(2) Largest target is 5
		 -> I2C1_Read1ByteRegister@returnValue(COMRAM[1]), I2C1_Read2ByteRegister@returnValue(COMRAM[2]), I2C1_ReadDataBlock@bufferBlock(COMRAM[4]), I2C1_Write1ByteRegister@data(COMRAM[1]), 
		 -> I2C1_Write2ByteRegister@data(COMRAM[2]), NULL(NULL[0]), 

    I2C1_DO_TX$3494$0	PTR void  size(2) Largest target is 5
		 -> I2C1_Read1ByteRegister@returnValue(COMRAM[1]), I2C1_Read2ByteRegister@returnValue(COMRAM[2]), I2C1_ReadDataBlock@bufferBlock(COMRAM[4]), I2C1_Write1ByteRegister@data(COMRAM[1]), 
		 -> I2C1_Write2ByteRegister@data(COMRAM[2]), NULL(NULL[0]), 

    I2C1_DO_TX_EMPTY$3500$0	PTR void  size(2) Largest target is 5
		 -> I2C1_Read1ByteRegister@returnValue(COMRAM[1]), I2C1_Read2ByteRegister@returnValue(COMRAM[2]), I2C1_ReadDataBlock@bufferBlock(COMRAM[4]), I2C1_Write1ByteRegister@data(COMRAM[1]), 
		 -> I2C1_Write2ByteRegister@data(COMRAM[2]), NULL(NULL[0]), 

    i2c1_fsmStateTable	const PTR FTN()enum E16630[19] size(2) Largest target is 1
		 -> I2C1_DO_ADDRESS_NACK(), I2C1_DO_BUS_COLLISION(), I2C1_DO_BUS_ERROR(), I2C1_DO_IDLE(), 
		 -> I2C1_DO_RESET(), I2C1_DO_RX(), I2C1_DO_RX_ACK(), I2C1_DO_RX_EMPTY(), 
		 -> I2C1_DO_RX_NACK_RESTART(), I2C1_DO_RX_NACK_STOP(), I2C1_DO_SEND_ADR_READ(), I2C1_DO_SEND_ADR_WRITE(), 
		 -> I2C1_DO_SEND_RESTART(), I2C1_DO_SEND_RESTART_READ(), I2C1_DO_SEND_RESTART_WRITE(), I2C1_DO_SEND_STOP(), 
		 -> I2C1_DO_TX(), I2C1_DO_TX_ACK(), I2C1_DO_TX_EMPTY(), 

    I2C1_Read1ByteRegister@returnValue$data	PTR unsigned char  size(2) Largest target is 0

    I2C1_Read2ByteRegister@returnValue$data	PTR unsigned char  size(2) Largest target is 0

    I2C1_Status$callbackPayload	PTR void [6] size(2) Largest target is 5
		 -> I2C1_Read1ByteRegister@returnValue(COMRAM[1]), I2C1_Read2ByteRegister@returnValue(COMRAM[2]), I2C1_ReadDataBlock@bufferBlock(COMRAM[4]), I2C1_Write1ByteRegister@data(COMRAM[1]), 
		 -> I2C1_Write2ByteRegister@data(COMRAM[2]), NULL(NULL[0]), 

    I2C1_Status$callbackTable	PTR FTN(PTR void ,)enum E363[6] size(2) Largest target is 1
		 -> I2C1_CallbackReturnReset(), I2C1_CallbackReturnStop(), rd1RegCompleteHandler(), rd2RegCompleteHandler(), 
		 -> rdBlkRegCompleteHandler(), wr1RegCompleteHandler(), wr2RegCompleteHandler(), NULL(), 

    I2C1_Status$data_ptr	PTR unsigned char  size(2) Largest target is 5
		 -> bufferBlock$data(COMRAM[3]), I2C1_Read1ByteRegister@reg(COMRAM[1]), I2C1_Read1ByteRegister@returnValue(COMRAM[1]), I2C1_Read1ByteRegister@returnValue$data(COMRAM[3]), 
		 -> I2C1_Read2ByteRegister@reg(COMRAM[1]), I2C1_Read2ByteRegister@returnValue(COMRAM[2]), I2C1_Read2ByteRegister@returnValue$data(COMRAM[3]), I2C1_ReadDataBlock@bufferBlock(COMRAM[4]), 
		 -> I2C1_ReadDataBlock@reg(COMRAM[1]), I2C1_Write1ByteRegister@data(COMRAM[1]), I2C1_Write1ByteRegister@data$data(COMRAM[3]), I2C1_Write1ByteRegister@reg(COMRAM[1]), 
		 -> I2C1_Write2ByteRegister@data(COMRAM[2]), I2C1_Write2ByteRegister@data$data(COMRAM[3]), I2C1_Write2ByteRegister@reg(COMRAM[1]), NULL(NULL[0]), 

    I2C1_Write1ByteRegister@data$data	PTR unsigned char  size(2) Largest target is 0

    I2C1_Write2ByteRegister@data$data	PTR unsigned char  size(2) Largest target is 0

    NULL$0	PTR void  size(2) Largest target is 5
		 -> I2C1_Read1ByteRegister@returnValue(COMRAM[1]), I2C1_Read2ByteRegister@returnValue(COMRAM[2]), I2C1_ReadDataBlock@bufferBlock(COMRAM[4]), I2C1_Write1ByteRegister@data(COMRAM[1]), 
		 -> I2C1_Write2ByteRegister@data(COMRAM[2]), NULL(NULL[0]), 

    rdBlkRegCompleteHandler@ptr$data	PTR unsigned char  size(2) Largest target is 0

    S1358$0$0	PTR void  size(2) Largest target is 5
		 -> I2C1_Read1ByteRegister@returnValue(COMRAM[1]), I2C1_Read2ByteRegister@returnValue(COMRAM[2]), I2C1_ReadDataBlock@bufferBlock(COMRAM[4]), I2C1_Write1ByteRegister@data(COMRAM[1]), 
		 -> I2C1_Write2ByteRegister@data(COMRAM[2]), NULL(NULL[0]), 

    S1358$callbackPayload	PTR void [6] size(2) Largest target is 5
		 -> I2C1_Read1ByteRegister@returnValue(COMRAM[1]), I2C1_Read2ByteRegister@returnValue(COMRAM[2]), I2C1_ReadDataBlock@bufferBlock(COMRAM[4]), I2C1_Write1ByteRegister@data(COMRAM[1]), 
		 -> I2C1_Write2ByteRegister@data(COMRAM[2]), NULL(NULL[0]), 

    S1358$callbackTable	PTR FTN(PTR void ,)enum E363[6] size(2) Largest target is 1
		 -> I2C1_CallbackReturnReset(), I2C1_CallbackReturnStop(), rd1RegCompleteHandler(), rd2RegCompleteHandler(), 
		 -> rdBlkRegCompleteHandler(), wr1RegCompleteHandler(), wr2RegCompleteHandler(), NULL(), 

    S1358$data_ptr	PTR unsigned char  size(2) Largest target is 5
		 -> I2C1_Read1ByteRegister@reg(COMRAM[1]), I2C1_Read1ByteRegister@returnValue(COMRAM[1]), I2C1_Read2ByteRegister@reg(COMRAM[1]), I2C1_Read2ByteRegister@returnValue(COMRAM[2]), 
		 -> I2C1_ReadDataBlock@bufferBlock(COMRAM[4]), I2C1_ReadDataBlock@reg(COMRAM[1]), I2C1_Write1ByteRegister@data(COMRAM[1]), I2C1_Write1ByteRegister@reg(COMRAM[1]), 
		 -> I2C1_Write2ByteRegister@data(COMRAM[2]), I2C1_Write2ByteRegister@reg(COMRAM[1]), NULL(NULL[0]), 

    S2954$buffer	PTR unsigned char  size(2) Largest target is 0

    S2954$source	PTR const unsigned char  size(2) Largest target is 0

    S96$data	PTR unsigned char  size(2) Largest target is 0

    sprintf@ap	PTR void [1] size(1) Largest target is 2
		 -> ?_sprintf(COMRAM[2]), 

    sprintf@fmt	PTR const unsigned char  size(1) Largest target is 20
		 -> STR_1(CODE[15]), STR_2(CODE[20]), STR_3(CODE[15]), 

    sprintf@s	PTR unsigned char  size(1) Largest target is 20
		 -> buffer(BANK0[20]), 

    TMR6_InterruptHandler	PTR FTN()void  size(2) Largest target is 1
		 -> TMR6_DefaultInterruptHandler(), NULL(), 

    TMR6_SetInterruptHandler@InterruptHandler	PTR FTN()void  size(2) Largest target is 1
		 -> TMR6_DefaultInterruptHandler(), 

    UART1_ErrorHandler	PTR FTN()void  size(2) Largest target is 1
		 -> UART1_DefaultErrorHandler(), NULL(), 

    UART1_FramingErrorHandler	PTR FTN()void  size(2) Largest target is 1
		 -> UART1_DefaultFramingErrorHandler(), NULL(), 

    UART1_OverrunErrorHandler	PTR FTN()void  size(2) Largest target is 1
		 -> UART1_DefaultOverrunErrorHandler(), NULL(), 

    UART1_SetErrorHandler@interruptHandler	PTR FTN()void  size(2) Largest target is 1
		 -> UART1_DefaultErrorHandler(), 

    UART1_SetFramingErrorHandler@interruptHandler	PTR FTN()void  size(2) Largest target is 1
		 -> UART1_DefaultFramingErrorHandler(), 

    UART1_SetOverrunErrorHandler@interruptHandler	PTR FTN()void  size(2) Largest target is 1
		 -> UART1_DefaultOverrunErrorHandler(), 

    UART_SendString@str	PTR const unsigned char  size(1) Largest target is 20
		 -> buffer(BANK0[20]), 

    vfpfcnvrt@ap	PTR PTR void  size(1) Largest target is 1
		 -> sprintf@ap(COMRAM[1]), 

    vfpfcnvrt@cp	PTR unsigned char  size(1) Largest target is 20
		 -> STR_1(CODE[15]), STR_2(CODE[20]), STR_3(CODE[15]), 

    vfpfcnvrt@fmt	PTR PTR unsigned char  size(1) Largest target is 1
		 -> vfprintf@cfmt(COMRAM[1]), 

    vfpfcnvrt@fp	PTR struct _IO_FILE size(1) Largest target is 12
		 -> sprintf@f(COMRAM[12]), 

    vfprintf@ap	PTR PTR void  size(1) Largest target is 1
		 -> sprintf@ap(COMRAM[1]), 

    vfprintf@cfmt	PTR unsigned char  size(1) Largest target is 20
		 -> STR_1(CODE[15]), STR_2(CODE[20]), STR_3(CODE[15]), 

    vfprintf@fmt	PTR const unsigned char  size(1) Largest target is 20
		 -> STR_1(CODE[15]), STR_2(CODE[20]), STR_3(CODE[15]), 

    vfprintf@fp	PTR struct _IO_FILE size(1) Largest target is 12
		 -> sprintf@f(COMRAM[12]), 


Critical Paths under _main in COMRAM

    None.

Critical Paths under _INTERRUPT_InterruptManager in COMRAM

    _INTERRUPT_InterruptManager->_map
    _sprintf->_vfprintf
    _vfprintf->_vfpfcnvrt
    _vfpfcnvrt->_abs
    _vfpfcnvrt->_fputc
    _fputc->_putch
    _putch->_UART1_Write
    _abs->___awmod
    _map->___fldiv
    ___flsub->___fladd
    ___flmul->___flsub
    ___fldiv->___flmul
    ___xxtofl->_ADCC_GetSingleConversion
    ___fltol->_map
    _UART_SendString->_UART1_Write

Critical Paths under _main in BANK0

    None.

Critical Paths under _INTERRUPT_InterruptManager in BANK0

    _INTERRUPT_InterruptManager->___fltol
    ___fltol->_map

Critical Paths under _main in BANK1

    _main->_PWM5_LoadDutyValue
    _UART1_Initialize->_UART1_SetErrorHandler
    _UART1_Initialize->_UART1_SetFramingErrorHandler
    _UART1_Initialize->_UART1_SetOverrunErrorHandler
    _TMR6_Initialize->_TMR6_SetInterruptHandler

Critical Paths under _INTERRUPT_InterruptManager in BANK1

    None.

Critical Paths under _main in BANK2

    None.

Critical Paths under _INTERRUPT_InterruptManager in BANK2

    None.

Critical Paths under _main in BANK3

    None.

Critical Paths under _INTERRUPT_InterruptManager in BANK3

    None.

Critical Paths under _main in BANK4

    None.

Critical Paths under _INTERRUPT_InterruptManager in BANK4

    None.

Critical Paths under _main in BANK5

    None.

Critical Paths under _INTERRUPT_InterruptManager in BANK5

    None.

Critical Paths under _main in BANK6

    None.

Critical Paths under _INTERRUPT_InterruptManager in BANK6

    None.

Critical Paths under _main in BANK7

    None.

Critical Paths under _INTERRUPT_InterruptManager in BANK7

    None.

Critical Paths under _main in BANK8

    None.

Critical Paths under _INTERRUPT_InterruptManager in BANK8

    None.

Critical Paths under _main in BANK9

    None.

Critical Paths under _INTERRUPT_InterruptManager in BANK9

    None.

Critical Paths under _main in BANK10

    None.

Critical Paths under _INTERRUPT_InterruptManager in BANK10

    None.

Critical Paths under _main in BANK11

    None.

Critical Paths under _INTERRUPT_InterruptManager in BANK11

    None.

Critical Paths under _main in BANK12

    None.

Critical Paths under _INTERRUPT_InterruptManager in BANK12

    None.

Critical Paths under _main in BANK13

    None.

Critical Paths under _INTERRUPT_InterruptManager in BANK13

    None.

Critical Paths under _main in BANK14

    None.

Critical Paths under _INTERRUPT_InterruptManager in BANK14

    None.

Critical Paths under _main in BANK15

    None.

Critical Paths under _INTERRUPT_InterruptManager in BANK15

    None.

Call Graph Tables:

 ---------------------------------------------------------------------------------
 (Depth) Function   	        Calls       Base Space   Used Autos Params    Refs
 ---------------------------------------------------------------------------------
 (0) _main                                                 2     2      0     639
                 _PWM5_LoadDutyValue
                  _SYSTEM_Initialize
 ---------------------------------------------------------------------------------
 (1) _SYSTEM_Initialize                                    0     0      0     484
                    _ADCC_Initialize
                    _DAC1_Initialize
                     _FVR_Initialize
                    _I2C1_Initialize
               _INTERRUPT_Initialize
              _OSCILLATOR_Initialize
             _PIN_MANAGER_Initialize
                     _PMD_Initialize
                    _PWM5_Initialize
                    _TMR2_Initialize
                    _TMR6_Initialize
                   _UART1_Initialize
 ---------------------------------------------------------------------------------
 (2) _UART1_Initialize                                     0     0      0     363
              _UART1_SetErrorHandler
       _UART1_SetFramingErrorHandler
       _UART1_SetOverrunErrorHandler
 ---------------------------------------------------------------------------------
 (3) _UART1_SetOverrunErrorHandler                         2     0      2     121
                                              0 BANK1      2     0      2
 ---------------------------------------------------------------------------------
 (3) _UART1_SetFramingErrorHandler                         2     0      2     121
                                              0 BANK1      2     0      2
 ---------------------------------------------------------------------------------
 (3) _UART1_SetErrorHandler                                2     0      2     121
                                              0 BANK1      2     0      2
 ---------------------------------------------------------------------------------
 (2) _TMR6_Initialize                                      0     0      0     121
           _TMR6_SetInterruptHandler
 ---------------------------------------------------------------------------------
 (3) _TMR6_SetInterruptHandler                             2     0      2     121
                                              0 BANK1      2     0      2
 ---------------------------------------------------------------------------------
 (2) _TMR2_Initialize                                      0     0      0       0
 ---------------------------------------------------------------------------------
 (2) _PWM5_Initialize                                      0     0      0       0
 ---------------------------------------------------------------------------------
 (2) _PMD_Initialize                                       0     0      0       0
 ---------------------------------------------------------------------------------
 (2) _PIN_MANAGER_Initialize                               0     0      0       0
 ---------------------------------------------------------------------------------
 (2) _OSCILLATOR_Initialize                                0     0      0       0
 ---------------------------------------------------------------------------------
 (2) _INTERRUPT_Initialize                                 0     0      0       0
 ---------------------------------------------------------------------------------
 (2) _I2C1_Initialize                                      0     0      0       0
 ---------------------------------------------------------------------------------
 (2) _FVR_Initialize                                       0     0      0       0
 ---------------------------------------------------------------------------------
 (2) _DAC1_Initialize                                      0     0      0       0
 ---------------------------------------------------------------------------------
 (2) _ADCC_Initialize                                      0     0      0       0
 ---------------------------------------------------------------------------------
 (1) _PWM5_LoadDutyValue                                   4     2      2     152
                                              0 BANK1      4     2      2
 ---------------------------------------------------------------------------------
 Estimated maximum stack depth 3
 ---------------------------------------------------------------------------------
 (Depth) Function   	        Calls       Base Space   Used Autos Params    Refs
 ---------------------------------------------------------------------------------
 (4) _INTERRUPT_InterruptManager                          10    10      0   18070
                                             14 BANK0     10    10      0
           _ADCC_GetSingleConversion
                           _TMR6_ISR
                    _UART_SendString
                            ___fldiv
                             ___flge
                            ___flmul
                            ___fltol
                           ___xxtofl
                                _map
                            _sprintf
 ---------------------------------------------------------------------------------
 (5) _sprintf                                             19    15      4    3635
                                             25 COMRAM    17    13      4
                           _vfprintf
 ---------------------------------------------------------------------------------
 (6) _vfprintf                                             4     1      3    2980
                                             21 COMRAM     4     1      3
                          _vfpfcnvrt
 ---------------------------------------------------------------------------------
 (7) _vfpfcnvrt                                           11     8      3    2630
                                             10 COMRAM    11     8      3
                            ___awdiv
                            ___awmod
                                _abs
                              _fputc
 ---------------------------------------------------------------------------------
 (8) _fputc                                                8     5      3     826
                                              2 COMRAM     8     5      3
                              _putch
 ---------------------------------------------------------------------------------
 (9) _putch                                                1     1      0      44
                                              1 COMRAM     1     1      0
                        _UART1_Write
 ---------------------------------------------------------------------------------
 (8) _abs                                                  4     2      2     142
                                              6 COMRAM     4     2      2
                            ___awmod (ARG)
 ---------------------------------------------------------------------------------
 (8) ___awmod                                              6     2      4     448
                                              0 COMRAM     6     2      4
 ---------------------------------------------------------------------------------
 (8) ___awdiv                                              8     4      4     452
                                              0 COMRAM     8     4      4
 ---------------------------------------------------------------------------------
 (5) _map                                                 24     4     20    9459
                                             74 COMRAM    20     0     20
                                              0 BANK0      4     4      0
                            ___fladd
                            ___fldiv
                            ___flmul
                            ___flsub
 ---------------------------------------------------------------------------------
 (6) ___flsub                                              8     0      8    3041
                                             16 COMRAM     8     0      8
                            ___fladd
 ---------------------------------------------------------------------------------
 (7) ___fladd                                             16     8      8    2414
                                              0 COMRAM    16     8      8
 ---------------------------------------------------------------------------------
 (6) ___flmul                                             25    17      8    1896
                                             24 COMRAM    25    17      8
                            ___flsub (ARG)
 ---------------------------------------------------------------------------------
 (6) ___fldiv                                             25    17      8    1551
                                             49 COMRAM    25    17      8
                            ___flmul (ARG)
                            ___flsub (ARG)
 ---------------------------------------------------------------------------------
 (5) ___xxtofl                                            14    10      4     398
                                              5 COMRAM    14    10      4
           _ADCC_GetSingleConversion (ARG)
 ---------------------------------------------------------------------------------
 (5) ___fltol                                             10     6      4     305
                                              4 BANK0     10     6      4
                                _map (ARG)
 ---------------------------------------------------------------------------------
 (5) ___flge                                              12     4      8     486
                                              0 COMRAM    12     4      8
 ---------------------------------------------------------------------------------
 (5) _UART_SendString                                      1     0      1     295
                                              1 COMRAM     1     0      1
                        _UART1_Write
 ---------------------------------------------------------------------------------
 (10) _UART1_Write                                         1     1      0      22
                                              0 COMRAM     1     1      0
 ---------------------------------------------------------------------------------
 (5) _TMR6_ISR                                             0     0      0       0
                                NULL *
       _TMR6_DefaultInterruptHandler *
 ---------------------------------------------------------------------------------
 (6) _TMR6_DefaultInterruptHandler                         0     0      0       0
 ---------------------------------------------------------------------------------
 (6) NULL(Fake)                                            2     0      2       0
 ---------------------------------------------------------------------------------
 (5) _ADCC_GetSingleConversion                             5     3      2      22
                                              0 COMRAM     5     3      2
 ---------------------------------------------------------------------------------
 Estimated maximum stack depth 10
 ---------------------------------------------------------------------------------

 Call Graph Graphs:

 _main (ROOT)
   _PWM5_LoadDutyValue
   _SYSTEM_Initialize
     _ADCC_Initialize
     _DAC1_Initialize
     _FVR_Initialize
     _I2C1_Initialize
     _INTERRUPT_Initialize
     _OSCILLATOR_Initialize
     _PIN_MANAGER_Initialize
     _PMD_Initialize
     _PWM5_Initialize
     _TMR2_Initialize
     _TMR6_Initialize
       _TMR6_SetInterruptHandler
     _UART1_Initialize
       _UART1_SetErrorHandler
       _UART1_SetFramingErrorHandler
       _UART1_SetOverrunErrorHandler

 _INTERRUPT_InterruptManager (ROOT)
   _ADCC_GetSingleConversion
   _TMR6_ISR
     NULL(Fake) *
     _TMR6_DefaultInterruptHandler *
   _UART_SendString
     _UART1_Write
   ___fldiv
     ___flmul (ARG)
       ___flsub (ARG)
         ___fladd
     ___flsub (ARG)
   ___flge
   ___flmul
   ___fltol
     _map (ARG)
       ___fladd
       ___fldiv
       ___flmul
       ___flsub
   ___xxtofl
     _ADCC_GetSingleConversion (ARG)
   _map
   _sprintf
     _vfprintf
       _vfpfcnvrt
         ___awdiv
         ___awmod
         _abs
           ___awmod (ARG)
         _fputc
           _putch
             _UART1_Write

 Address spaces:
Name               Size   Autos  Total    Cost      Usage
BIGRAM             FFF      0     200      77       12.5%
EEDATA             400      0       0       0        0.0%
BITBIGSFRhhhhll    284      0       0      54        0.0%
BITBIGSFRllll      192      0       0      75        0.0%
BITBANK15          100      0       0      34        0.0%
BANK15             100      0       0      35        0.0%
BITBANK14          100      0       0      32        0.0%
BANK14             100      0       0      33        0.0%
BITBANK13          100      0       0      30        0.0%
BANK13             100      0       0      31        0.0%
BITBANK12          100      0       0      28        0.0%
BANK12             100      0       0      29        0.0%
BITBANK11          100      0       0      26        0.0%
BANK11             100      0       0      27        0.0%
BITBANK10          100      0       0      24        0.0%
BANK10             100      0       0      25        0.0%
BITBANK9           100      0       0      22        0.0%
BANK9              100      0       0      23        0.0%
BITBANK8           100      0       0      20        0.0%
BANK8              100      0       0      21        0.0%
BITBANK7           100      0       0      18        0.0%
BANK7              100      0       0      19        0.0%
BITBANK6           100      0       0      16        0.0%
BANK6              100      0       0      17        0.0%
BITBANK5           100      0       0      14        0.0%
BANK5              100      0       0      15        0.0%
BITBANK4           100      0       0      12        0.0%
BANK4              100      0       0      13        0.0%
BITBANK3           100      0       0      10        0.0%
BANK3              100      0       0      11        0.0%
BITBANK2           100      0       0       8        0.0%
BANK2              100      0       0       9        0.0%
BITBANK1           100      0       0       6        0.0%
BANK1              100      4      24       7       14.1%
BITBIGSFRhhhhll     A1      0       0      48        0.0%
BITBANK0            A0      0       0       4        0.0%
BANK0               A0     18      9B       5       96.9%
BITBIGSFRhhhhll     6C      0       0      51        0.0%
BITBIGSFRhhhhll     5F      0       0      43        0.0%
BITCOMRAM           5F      0       0       0        0.0%
COMRAM              5F     5E      5F       1      100.0%
BITBIGSFRhhhhll     5C      0       0      56        0.0%
BITBIGSFRhhhhhh     2D      0       0      36        0.0%
BITBIGSFRhhhhll     29      0       0      64        0.0%
BITBIGSFRhhhhll     29      0       0      67        0.0%
BITBIGSFRhhhhll     23      0       0      41        0.0%
BITBIGSFRhhhhll     22      0       0      46        0.0%
BITBIGSFRhhhhll     1C      0       0      45        0.0%
BITBIGSFRllhh       16      0       0      71        0.0%
BITBIGSFRhhhhll     12      0       0      40        0.0%
BITBIGSFRlh         11      0       0      70        0.0%
BITBIGSFRhhhhll      C      0       0      42        0.0%
BITBIGSFRhhhhll      B      0       0      63        0.0%
BITBIGSFRhhhhhh      B      0       0      37        0.0%
BITBIGSFRhhhhll      A      0       0      39        0.0%
BITBIGSFRlllhh       8      0       0      73        0.0%
BITBIGSFRhhhhll      7      0       0      66        0.0%
BITBIGSFRhhhhll      6      0       0      53        0.0%
BITBIGSFRlllhl       5      0       0      74        0.0%
BITBIGSFRhhhhll      5      0       0      62        0.0%
BITBIGSFRhhhhll      5      0       0      60        0.0%
BITBIGSFRhhhhll      5      0       0      58        0.0%
BITBIGSFRllhl        4      0       0      72        0.0%
BITBIGSFRhhhhll      4      0       0      57        0.0%
BITBIGSFRhhhhll      4      0       0      59        0.0%
BITBIGSFRhhhhll      4      0       0      61        0.0%
BITBIGSFRhhhhll      3      0       0      65        0.0%
BITBIGSFRhhhhhl      3      0       0      38        0.0%
BITBIGSFRhhhhll      2      0       0      55        0.0%
BITBIGSFRhhhhll      1      0       0      47        0.0%
BITBIGSFRhhhhll      1      0       0      52        0.0%
BITBIGSFRhhhhll      1      0       0      44        0.0%
BITBIGSFRhhhhll      1      0       0      49        0.0%
BITBIGSFRhhhhll      1      0       0      50        0.0%
BITBIGSFRhhl         1      0       0      68        0.0%
BITBIGSFRhl          1      0       0      69        0.0%
BIGSFR               0      0       0     200        0.0%
BITSFR_8             0      0       0     200        0.0%
SFR_8                0      0       0     200        0.0%
BITSFR_7             0      0       0     200        0.0%
SFR_7                0      0       0     200        0.0%
BITSFR_6             0      0       0     200        0.0%
SFR_6                0      0       0     200        0.0%
BITSFR_5             0      0       0     200        0.0%
SFR_5                0      0       0     200        0.0%
BITSFR_4             0      0       0     200        0.0%
SFR_4                0      0       0     200        0.0%
BITSFR_3             0      0       0     200        0.0%
SFR_3                0      0       0     200        0.0%
BITSFR_2             0      0       0     200        0.0%
SFR_2                0      0       0     200        0.0%
BITSFR_1             0      0       0     200        0.0%
SFR_1                0      0       0     200        0.0%
BITSFR               0      0       0     200        0.0%
SFR                  0      0       0     200        0.0%
STACK                0      0       0       2        0.0%
NULL                 0      0       0       0        0.0%
ABS                  0      0     11E      76        0.0%
DATA                 0      0     31E       3        0.0%
CODE                 0      0       0       0        0.0%


Microchip Technology PIC18 Macro Assembler V2.45 build 20230818022343 
Symbol Table                                                                                   Thu Nov 23 15:54:47 2023

                                           _B 1027                                  ___fldiv@aexp 004A  
                                ___fldiv@bexp 0049                                             _k 00B8  
                                           _x 0084                                  ___fldiv@sign 0042  
                                ___awdiv@sign 0006                        __end_of_FVR_Initialize 2D48  
                             _DAC1_Initialize 2D02                                           l161 2C5A  
                                         l155 2B7A                                           l260 2848  
                                         l158 2D00                                           l326 2964  
                                         l373 2D20                                           l630 2AE0  
                                         l376 2D16                                           l386 2D46  
                                         l627 2CE8                                           l379 2D2A  
                                         l468 2A22                                           l576 2C9A  
                                         l783 2C7C                                           _PR2 3FAB  
                                         _PR6 3F93                                           _abs 2B16  
                                         _map 2530                                  ___awmod@sign 0006  
                             _TMR2_Initialize 2C7E                                           tosl 3FFD  
                                         wreg 3FE8                          _I2C1_DO_RX_NACK_STOP 0000  
                                ___flmul@aexp 002A                                  ___flmul@bexp 002B  
                                ___flmul@sign 0025                                  ___flmul@temp 0030  
                                ___flmul@prod 002C                                  ___fltol@exp1 00E4  
                                        ?_abs 0007                                          l1204 2D0C  
                                        l1136 2D34                                          l1093 2C0C  
                                        l1187 2D4E                                          ?_map 004B  
                                        l5521 2D0E                                          l5601 2B52  
                                        l5531 2C5C                                          l5523 2D22  
                                        l5611 2B66                                          l5603 2B56  
                                        l5621 2AAC                                          l5533 2C7A  
                                        l5541 27C0                                          l5525 2D2C  
                                        l5613 2B6A                                          l5605 2B5A  
                                        l5527 2D4C                                          l5551 2818  
                                        l5543 27C2                                          l5519 2D18  
                                        l5615 2B6E                                          l5607 2B5E  
                                        l5623 2C9C                                          l5561 2826  
                                        l5553 281A                                          l5545 27D2  
                                        l5537 279E                                          l5529 2C38  
                                        l5617 2B72                                          l5609 2B62  
                                        l5625 2CA0                                          l5563 2CEA  
                                        l5555 2820                                          l5547 2814  
                                        l5539 27B6                                          l5571 2BF8  
                                        l5619 2B76                                          l5627 2CA2  
                                        l5565 2D40                                          l5557 2822  
                                        l5549 2816                                          l5581 2CD2  
                                        l5573 2BFA                                          l5629 2CA2  
                                        l5559 2824                                          l5583 2C7E  
                                        l5575 2C08                                          l5567 2BE0  
                                        l5591 2942                                          l5577 29C8  
                                        l5585 2C92                                          l5569 2BF4  
                                        l5593 2950                                          l5579 2D02  
                                        l5595 295E                                          l5587 28F6  
                                        l5589 2934                                          l5597 2B4A  
                                        l5599 2B4E                                          STR_1 104B  
                                        STR_2 1037                                          STR_3 105A  
                               _ADC_90_Grados 00BE                                          _LATA 3FBA  
                                        _LATB 3FBB                                          _LATC 3FBC  
                                        _LATD 3FBD                                          _LATE 3FBE  
                                        _T2PR 3FAB                                          u4185 2AD2  
                                        _T6PR 3F93                                          _PMD0 39C0  
                                        _PMD1 39C1                                          _PMD2 39C2  
                                        _PMD3 39C3                                          _PMD4 39C4  
                                        _PMD5 39C5                                          _PMD6 39C6  
                                        _PMD7 39C7                                          _TMR2 3FAA  
                                        _TMR6 3F92                                          _WPUA 3A41  
                                        _WPUB 3A51                                          _WPUC 3A61  
                                        _WPUD 3A71                                          _WPUE 3A81  
                                _ADC_0_Grados 00C0                                          abs@a 0007  
                                        _dbuf 0100                                          _main 2C9C  
                                        _prec 00B6                                          fsr1h 3FE2  
                                        fsr2h 3FDA                                          indf2 3FDF  
                                        fsr1l 3FE1                                          map@x 004B  
                                        fsr2l 3FD9                                          prodh 3FF4  
                                        prodl 3FF3                                          start 001A  
                             ___fldiv@new_exp 0043                               _PWM5_Initialize 2CD2  
                                ___param_bank 0000                    __end_of_PWM5_LoadDutyValue 2AE2  
                                       ??_abs 0009                                         ??_map 005F  
                             ?_FVR_Initialize 0001                 __end_of_OSCILLATOR_Initialize 2D02  
                               ___fltol@sign1 00E3                                         _ADACT 3EFE  
                                       _ADCAP 3EF5                               __end_of___fladd 152A  
                                       ?_main 0001                                         _ADCLK 3EFF  
                                       _ADCNT 3EEB                                         _ADPCH 3EF1  
                             __end_of___fldiv 1D12                                         _ADREF 3EFD  
                             __end_of___awdiv 26EE                               __end_of___awmod 279E  
                                       _ADRPT 3EEC                               __end_of___flmul 1978  
                             __end_of___flsub 2A6A                               __end_of___fltol 242C  
                             ___awdiv@divisor 0003                                         _U1P1H 3DED  
                                       _U1P2H 3DEF                                         _U1P3H 3DF1  
                                       _U1P1L 3DEC                                         _U1P2L 3DEE  
                                       _T2CON 3FAC                                         _U1P3L 3DF0  
                                       _T2HLT 3FAD                                         _T6CON 3F94  
                                       _T6HLT 3F95                                         _T2TMR 3FAA  
                                       _U1UIR 3DF8                                         _T2RST 3FAF  
                                       _U1RXB 3DE8                                         _U1TXB 3DEA  
                                       i2l352 2CBA                                         i2l361 2D3E  
                                       i2l355 2CD0                                         _T6TMR 3F92  
                                       i2l480 2BBE                                         _T6RST 3F97  
                                       i2l483 2BDE                               ___awdiv@counter 0005  
                  __end_of_i2c1_fsmStateTable 1027                                         _OSCEN 39DD  
                                vfpfcnvrt@fmt 000C                                         _TRISA 3FC2  
                                       _TRISB 3FC3                                         _TRISC 3FC4  
                                       _TRISD 3FC5                                         _TRISE 3FC6  
                           ??_I2C1_Initialize 0120                     ?_TMR6_SetInterruptHandler 0120  
                            __end_of_TMR6_ISR 2BAE                                         _flags 005F  
                                       _fputc 284A                                         _width 00B4  
                                       _putch 2D36                              ?_UART_SendString 0002  
                                       pclath 3FFA                                         pclatu 3FFB  
                                       tablat 3FF5                                         status 3FD8  
                             __end_of_sprintf 2B16              _UART1_DefaultFramingErrorHandler 0000  
              ??_TMR6_DefaultInterruptHandler 0001                               __initialization 2966  
                                __end_of_main 2CB8                       __end_of_DAC1_Initialize 2D0E  
                     __end_of_TMR2_Initialize 2C9C                   ?_INTERRUPT_InterruptManager 0001  
                                ?_UART1_Write 0001                                _puntoDeQuiebre 00F7  
                                      ??_main 0124                                 __activetblptr 0003  
                             _TMR6_Initialize 2BE0                              _UART1_Initialize 28F6  
                                      _ADACCH 3EE9                                        _ADACCL 3EE8  
                                      _ADACCU 3EEA                                        _ADACQH 3EF4  
                                      _ADACQL 3EF3                                        _ADCON0 3EF8  
                                      _ADCON1 3EF9                                        _ADCON2 3EFA  
                                      _ADCON3 3EFB                                        _ADERRH 3EE3  
                                      _ADERRL 3EE2                                        ?_fputc 0003  
                                      _ADLTHH 3EDF                                        _ADLTHL 3EDE  
                                      _ADRESH 3EF0                                        _ADRESL 3EEF  
                                      _ADPREH 3EF7                                        _ADPREL 3EF6  
                                      _ADSTAT 3EFC                                        _ADUTHH 3EE1  
                            ___awdiv@dividend 0001                                        _ADUTHL 3EE0  
                                      _ANSELA 3A40                                        ?_putch 0001  
                                      _ANSELB 3A50                                        _ANSELC 3A60  
                                      _ANSELD 3A70                                        _ANSELE 3A80  
                                      _RB1I2C 3A5A                                        _RB2I2C 3A5B  
                                      _RD0I2C 3A7A                                        _U1CON0 3DF2  
                                      _U1CON1 3DF3                                        _U1CON2 3DF4  
                                      _RD1I2C 3A7B                                        _RC3I2C 3A6A  
                                      _RC4I2C 3A6B                                        _U1BRGH 3DF6  
                                      _U1FIFO 3DF7                                        _U1BRGL 3DF5  
                                      _RB1PPS 3A09                                        _RB2PPS 3A0A  
                                      _RC2PPS 3A12                                        _ODCONA 3A42  
                                      _ODCONB 3A52                                        _RC6PPS 3A16  
                                      _ODCONC 3A62                                        _ODCOND 3A72  
                                      _ODCONE 3A82                       __end_of_PWM5_Initialize 2CEA  
                                      i2l1133 2BAC                                        i2l1139 2D50  
                                      i2l1172 2628                                        i2l1503 24E8  
                                      i2l1184 2C36                                        i2l1508 252E  
                                      i2l4101 1186                                        i2l1197 1F70  
                                      i2l1535 242A                                        i2l4111 119A  
                                      i2l4103 118A                                        i2l4201 1400  
                                      i2l4121 11AE                                        i2l4113 119E  
                                      i2l4105 118E                                        i2l4041 106A  
                                      i2l1482 279C                                        i2l4211 1452  
                                      i2l4203 1404                                        i2l4131 1226  
                                      i2l4123 11D8                                        i2l4115 11A2  
                                      i2l4107 1192                                        i2l4051 10A6  
                                      i2l4043 1076                                        i2l1900 225E  
                                      i2l1820 1D10                                        i2l4221 14B8  
                                      i2l4213 145E                                        i2l4205 1412  
                                      i2l4141 1266                                        i2l4133 122A  
                                      i2l4125 11F4                                        i2l4117 11A6  
                                      i2l4109 1196                                        i2l4061 10D6  
                                      i2l4053 10B6                                        i2l4045 1084  
                                      i2l1469 26EC                                        i2l1822 1B70  
                                      i2l1831 1BB6                                        i2l4231 1500  
                                      i2l4223 14C8                                        i2l4215 146C  
                                      i2l4207 1428                                        i2l4151 12A8  
                                      i2l4143 1276                                        i2l4135 1238  
                                      i2l4127 1204                                        i2l4119 11AA  
                                      i2l4071 1100                                        i2l4063 10E8  
                                      i2l4055 10B8                                        i2l4047 1086  
                                      i2l1808 2A68                                        i2l1833 1C2E  
                                      i2l1825 1B34                                        i2l4401 19FA  
                                      i2l4233 1502                                        i2l4225 14E8  
                                      i2l4217 14A6                                        i2l4161 12D6  
                                      i2l4153 12B6                                        i2l4137 123A  
                                      i2l4129 121A                                        i2l4073 1110  
                                      i2l4081 113A                                        i2l4065 10EA  
                                      i2l4049 1096                                        i2l4057 10C0  
                                      i2l1834 1C1C                                        i2l1907 22BA  
                                      i2l4403 1A0A                                        i2l4411 1A34  
                                      i2l4235 1508                                        i2l4227 14EC  
                                      i2l4219 14A8                                        i2l4171 1342  
                                      i2l4163 12E0                                        i2l4155 12C2  
                                      i2l4147 128A                                        i2l4139 1244  
                                      i2l4091 1172                                        i2l4083 114A  
                                      i2l4075 1120                                        i2l4067 10F0  
                                      i2l4059 10D0                                        i2l4251 1FD6  
                                      i2l4243 1F96                                        i2l1852 15EE  
                                      i2l1916 2B14                                        i2l4501 1CFE  
                                      i2l4421 1A76                                        i2l4413 1A44  
                                      i2l4405 1A1A                                        i2l1861 1880  
                                      i2l4237 1516                                        i2l4229 14FA  
                                      i2l4173 1352                                        i2l4157 12C6  
                                      i2l4149 129A                                        i2l4165 12E6  
                                      i2l4093 1176                                        i2l4085 115C  
                                      i2l4077 1130                                        i2l4069 10FE  
                                      i2l4261 2046                                        i2l4253 1FE0  
                                      i2l4245 1FBC                                        i2l1862 186E  
                                      i2l1766 1258                                        i2l4503 1D04  
                                      i2l4415 1A5A                                        i2l4407 1A2A  
                                      i2l4239 1518                                        i2l4191 13D4  
                                      i2l4183 13AC                                        i2l1783 1372  
                                      i2l4167 130C                                        i2l4175 1362  
                                      i2l4159 12D4                                        i2l1775 1528  
                                      i2l1767 1246                                        i2l4095 117A  
                                      i2l4087 116A                                        i2l4079 1132  
                                      i2l4271 20D0                                        i2l4263 205E  
                                      i2l4255 2000                                        i2l4247 1FC4  
                                      i2l1856 1976                                        i2l1792 1442  
                                      i2l1768 120C                                        i2l1960 2AAA  
                                      i2l4505 1D06                                        i2l4441 1AF8  
                                      i2l4433 1AAE                                        i2l4417 1A6A  
                                      i2l4425 1A8A                                        i2l4409 1A2C  
                                      i2l4601 1818                                        i2l4521 1556  
                                      i2l4513 152A                                        i2l1793 1430  
                                      i2l4193 13DC                                        i2l4185 13B6  
                                      i2l4177 1388                                        i2l4169 1340  
                                      i2l4097 117E                                        i2l4089 116E  
                                      i2l4273 20E0                                        i2l4281 2126  
                                      i2l4265 2092                                        i2l4257 2020  
                                      i2l4249 1FD2                                        i2l1954 216E  
                                      i2l4451 1B3E                                        i2l4443 1B00  
                                      i2l4435 1AC8                                        i2l4427 1A9A  
                                      i2l4419 1A72                                        i2l4603 1826  
                                      i2l1859 1808                                        i2l4531 1592  
                                      i2l4523 1566                                        i2l4515 1536  
                                      i2l4195 13E0                                        i2l4187 13C4  
                                      i2l4179 1398                                        i2l4099 1182  
                                      i2l4275 20F0                                        i2l4267 20AE  
                                      i2l4259 203C                                        i2l4283 213C  
                                      i2l1964 2B30                                        i2l1893 21C6  
                                      i2l4461 1B96                                        i2l4453 1B5C  
                                      i2l4445 1B10                                        i2l4437 1AD8  
                                      i2l4429 1A9A                                        i2l4381 1994  
                                      i2l1869 1938                                        i2l4613 1890  
                                      i2l4621 18D8                                        i2l4605 182A  
                                      i2l4541 15C8                                        i2l4533 1598  
                                      i2l4525 1576                                        i2l4517 1544  
                                      i2l4197 13F0                                        i2l4189 13C6  
                                      i2l3901 262E                                        i2l4277 2106  
                                      i2l4269 20C0                                        i2l4711 2BBA  
                                      i2l4471 1BD4                                        i2l4463 1B9C  
                                      i2l4455 1B5E                                        i2l4447 1B24  
                                      i2l4439 1AE8                                        i2l4383 19A4  
                                      i2l4391 19CE                                        i2l4375 1978  
                                      i2l4631 194C                                        i2l4623 18F2  
                                      i2l4615 189C                                        i2l4607 1838  
                                      i2l4543 15D8                                        i2l4535 15A6  
                                      i2l4527 157C                                        i2l4519 1546  
                                      i2l4199 13F2                                        i2l3911 265E  
                                      i2l3903 263C                                        i2l1967 2B48  
                                      i2l4279 2124                                        i2l4287 2148  
                                      i2l1896 2322                                        i2l4713 2BBC  
                                      i2l4481 1C3E                                        i2l4473 1BD8  
                                      i2l4465 1BA6                                        i2l4457 1B6E  
                                      i2l4449 1B32                                        i2l4393 19DE  
                                      i2l4385 19B4                                        i2l4377 1984  
                                      i2l4633 195A                                        i2l4625 1906  
                                      i2l4617 18AA                                        i2l4609 1866  
                                      i2l4561 1662                                        i2l4553 1622  
                                      i2l4545 15DE                                        i2l4537 15A8  
                                      i2l4529 158C                                        i2l3921 268C  
                                      i2l3913 2662                                        i2l3905 2644  
                                      i2l4801 2AF2                                        _INLVLA 3A44  
                                      _INLVLB 3A54                                        i2l4715 2BCC  
                                      i2l4707 2BB0                                        i2l4491 1CA0  
                                      i2l4483 1C4A                                        i2l4475 1BE6  
                                      i2l4467 1BB4                                        i2l4459 1B80  
                                      i2l4395 19E4                                        i2l4387 19C4  
                                      i2l4379 1992                                        i2l4635 195C  
                                      i2l4627 1920                                        i2l4619 18D4  
                                      i2l4571 16B4                                        i2l4563 167E  
                                      i2l4555 1632                                        i2l4547 15FE  
                                      i2l4539 15B8                                        i2l4643 2A24  
                                      i2l3931 26C0                                        i2l3923 269A  
                                      i2l3915 266A                                        i2l3907 2648  
                                      i2l1979 28F4                                        i2l4651 2A72  
                                      i2l4803 2AFA                                        i2l5451 1D46  
                                      _INLVLC 3A64                                        _INLVLD 3A74  
                                      i2l4709 2BB6                                        i2l3837 2CBA  
                                      i2l4821 245A                                        i2l4901 2214  
                                      i2l4493 1CB6                                        i2l4485 1C58  
                                      i2l4477 1C14                                        i2l4469 1BC6  
                                      i2l4397 19EA                                        i2l4389 19C6  
                                      i2l4629 193C                                        i2l4637 1962  
                                      i2l4581 1712                                        i2l4573 16C4  
                                      i2l4565 168A                                        i2l4557 163C  
                                      i2l4549 160E                                        i2l4645 2A34  
                                      i2l3933 26C6                                        i2l3925 26A0  
                                      i2l3917 267C                                        i2l3909 2656  
                                      i2l4653 2A82                                        i2l4805 2B0A  
                                      i2l5461 1E12                                        i2l5453 1D54  
                                      _INLVLE 3A84                                        i2l3839 2CCA  
                                      i2l4831 24C8                                        i2l4823 246A  
                                      i2l4911 229C                                        i2l4903 2246  
                                      i2l4495 1CD0                                        i2l4487 1C82  
                                      i2l4399 19F8                                        i2l4639 1966  
                                      i2l4591 17C2                                        i2l4583 1732  
                                      i2l4575 16D4                                        i2l4567 1696  
                                      i2l4559 1656                                        i2l3927 26B6  
                                      i2l3919 2684                                        i2l3935 26CC  
                                      i2l3951 270C                                        i2l3943 26EE  
                                      i2l4655 2AA2                                        i2l5471 1E78  
                                      i2l5463 1E16                                        i2l5455 1D58  
                                      i2l4833 24D6                                        i2l4825 2498  
                                      i2l4841 2324                                        i2l4921 22F2  
                                      i2l4913 22AA                                        i2l4905 2248  
                                      i2l4497 1CEC                                        i2l4489 1C86  
                                      i2l4593 17D0                                        i2l4585 1742  
                                      i2l4577 16E4                                        i2l4569 16A4  
                                      i2l3937 26DC                                        i2l3929 26BE  
                                      i2l3961 2744                                        i2l3953 271A  
                                      i2l3945 26F2                                        i2l3857 2D38  
                                      i2l4649 2A6A                                        i2l5481 1F42  
                                      i2l5473 1EAA                                        i2l5465 1E48  
                                      i2l5457 1D80                                        i2l5449 1D36  
                                      i2l4835 2526                                        i2l4827 24A8  
                                      i2l4819 242C                                        i2l4851 237C  
                                      i2l4843 233C                                        i2l4923 2302  
                                      i2l4915 22C8                                        i2l4907 2254  
                                      i2l4499 1CF0                                        i2l4595 17EE  
                                      i2l4587 1762                                        i2l4579 1702  
                                      i2l3939 26E4                                        i2l3963 2752  
                                      i2l3971 277C                                        i2l3955 2722  
                                      i2l3947 2700                                        i2l5475 1F1A  
                                      i2l5483 1F4A                                        i2l5467 1E58  
                                      i2l5459 1DD8                                        i2l4781 2B94  
                                      i2l4837 252C                                        i2l4829 24B6  
                                      i2l4853 238C                                        i2l4925 2310  
                                      i2l4917 22CA                                        i2l4909 2290  
                                      i2l4597 17F8                                        i2l4589 178C  
                                      i2l3973 278C                                        i2l3965 2768  
                                      i2l3957 2734                                        i2l3949 2708  
                                      i2l3981 285A                                        i2l5485 1F56  
                                      i2l5477 1F26                                        i2l5469 1E70  
                                      i2l4791 2C12                                        i2l4863 23B6  
                                      i2l4855 2390                                        i2l4847 2350  
                                      i2l4927 2312                                        i2l4919 22CE  
                                      i2l4599 1806                                        i2l4783 2530  
                                      i2l3975 2794                                        i2l3967 2770  
                                      i2l3959 273C                                        i2l3983 286A  
                                      i2l5487 1F5E                                        i2l5479 1F2E  
                                      i2l4777 2B7C                                        i2l4793 2C1E  
                                      i2l4881 241A                                        i2l4873 23DE  
                                      i2l4865 23C0                                        i2l4857 239E  
                                      i2l4849 237A                                        i2l4785 25F4  
                                      i2l3969 2776                                        i2l3993 2B16  
                                      i2l3985 2874                                        i2l4779 2B80  
                                      i2l4795 2C20                                        i2l4875 23EA  
                                      i2l4867 23CA                                        i2l4891 21D6  
                                      i2l3899 262A                                        i2l3995 2B24  
                                      i2l3987 2890                                        i2l3979 284A  
                                      i2l4789 2C0E                                        i2l4877 23FA  
                                      i2l4893 21EC                                        i2l4885 2172  
                                      i2l3989 28C2                                        i2l4797 2AE2  
                                      i2l4879 240A                                        i2l4887 2182  
                                      i2l4799 2AEA                                        _FVRCON 3EC1  
                                      i2l4897 2200                                        i2l4889 2190  
                                      i2l4899 2208                                        _OSCFRQ 39DF  
                               vfpfcnvrt@done 000F                         _UART1_SetErrorHandler 2D22  
                            __end_of___xxtofl 2324                              _I2C1_DO_RX_EMPTY 0000  
                            _I2C1_DO_TX_EMPTY 0000                                  _CCPTMRS1bits 3F5F  
                                vfprintf@cfmt 0019                                        ___flge 242C  
                                   ??___fladd 0009                                     ??___fldiv 003A  
                                   ??___awdiv 0005                                     ??___awmod 0005  
                                   ??___flmul 0021                                     ??___flsub 0019  
                                   ??___fltol 00DF                                        _angulo 00A8  
                                      _buffer 00C3                                        clear_0 2990  
                                      clear_1 29A2                                        clear_2 29AE  
                            ___awdiv@quotient 0007                               ___awmod@divisor 0003  
                                      isa$std 0001                               ___awmod@counter 0005  
                             _ADCC_Initialize 29C8                         _I2C1_DO_SEND_ADR_READ 0000  
                                      fputc@c 0003                                _PMD_Initialize 2C38  
                                __mediumconst 0000                                        tblptrh 3FF7  
                                      tblptrl 3FF6                                        tblptru 3FF8  
                            __end_of_vfprintf 2AAC                     ?_ADCC_GetSingleConversion 0001  
    TMR6_SetInterruptHandler@InterruptHandler 0120          __end_of_UART1_SetOverrunErrorHandler 2D18  
                _UART1_SetOverrunErrorHandler 2D0E                     _UART1_DefaultErrorHandler 0000  
                                   ??_sprintf 001E                       _I2C1_DO_RX_NACK_RESTART 0000  
                                  ___flge@ff1 0001                                    ___flge@ff2 0005  
                                ___xxtofl@arg 0010                                  ___xxtofl@exp 000F  
                           _SYSTEM_Initialize 2B4A                                  ___xxtofl@val 0006  
                                  __accesstop 0060                       __end_of__initialization 29C2  
                          ?_SYSTEM_Initialize 0001                                 ___rparam_used 0001  
                                  ___fltol@f1 00DB                       _rdBlkRegCompleteHandler 0000  
                              __pcstackCOMRAM 0001                                  __pidataBANK0 2D48  
                         ??_SYSTEM_Initialize 0122                              ?_DAC1_Initialize 0001  
                                   ?_TMR6_ISR 0001                                 __end_of_fputc 28F6  
                               __end_of_putch 2D40                              ?_TMR2_Initialize 0001  
                     __end_of_TMR6_Initialize 2C0E                        __end_of_PMD_Initialize 2C5C  
                   _UART1_FramingErrorHandler 00F5                             _I2C1_DO_BUS_ERROR 0000  
                                     ??_fputc 0006                     __end_of_SYSTEM_Initialize 2B7C  
                                     ??_putch 0002                                    __pbssBANK0 0060  
                                  __pbssBANK1 0100                 ?_UART1_SetOverrunErrorHandler 0120  
                      ?_UART1_SetErrorHandler 0120                              ?_PWM5_Initialize 0001  
                       _rd1RegCompleteHandler 0000                                       IVTBASEH 3FD6  
                                     IVTBASEL 3FD5                                       IVTBASEU 3FD7  
                           _I2C1_DO_SEND_STOP 0000                         _wr1RegCompleteHandler 0000  
                            ??_FVR_Initialize 0120                                       ?___flge 0001  
                                     _I2C1CLK 3D7B                                       _I2C1CNT 3D6C  
                                     _I2C1ERR 3D76                                       _I2C1PIE 3D7A  
                                     _I2C1PIR 3D79                                       _I2C1RXB 3D6A  
                                     _I2C1TXB 3D6B              __end_of_TMR6_SetInterruptHandler 2D36  
                     __end_of_ADCC_Initialize 2A24                                    ??_TMR6_ISR 0001  
                             _I2C1_Initialize 2C5C                                       _ADFLTRH 3EE7  
                                     _ADFLTRL 3EE6                                       _ADPREVH 3EEE  
                                     _ADPREVL 3EED                                       _ADSTPTH 3EE5  
                                     _ADSTPTL 3EE4                               ?_PMD_Initialize 0001  
                                     _U1ERRIE 3DFA                                       _U1ERRIR 3DF9  
                                     _U1RXPPS 3AE5                                     ?___xxtofl 0006  
                          _PWM5_LoadDutyValue 2AAC                                       _OSCCON1 39D9  
                                     _OSCCON3 39DB                                       _OSCTUNE 39DE  
                                     _PWM5DCH 3F6D                                       _PWM5DCL 3F6C  
                                     _PWM5CON 3F6E                                       _SLRCONA 3A43  
                                     _SLRCONB 3A53                                       _SLRCONC 3A63  
                                     _SLRCOND 3A73                                       _SLRCONE 3A83  
                         ?_PWM5_LoadDutyValue 0120                            _i2c1_fsmStateTable 1001  
                                     __Hparam 0000                                       __Lparam 0000  
                    __end_of_UART1_Initialize 2966                            UART_SendString@str 0002  
                                     ___fladd 106A                                       ___fldiv 1978  
                                     ___awdiv 262A                                       ___awmod 26EE  
                                     ___flmul 152A                                       ___flsub 2A24  
                                     ___fltol 2324                                     ?_vfprintf 0016  
                        ??_PWM5_LoadDutyValue 0122                                  __psmallconst 1000  
                                     _bandera 00BC                                       __pcinit 2966  
                            ?_TMR6_Initialize 0001                                       __ramtop 1000  
                                     __ptext0 2C9C                                       __ptext1 2B4A  
                                     __ptext2 28F6                                       __ptext3 2D0E  
                                     __ptext4 2D18                                       __ptext5 2D22  
                                     __ptext6 2BE0                                       __ptext7 2D2C  
                                     __ptext8 2C7E                                       __ptext9 2CD2  
                       _OSCILLATOR_Initialize 2CEA                                     _T2CONbits 3FAC  
                                 _I2C1ERRbits 3D76                                    ??___xxtofl 000A  
                            ___awmod@dividend 0001                      ??_PIN_MANAGER_Initialize 0120  
                                 _I2C1PIEbits 3D7A                                     _T2HLTbits 3FAD  
                                   _T6CONbits 3F94                                   _I2C1PIRbits 3D79  
                                   _T6HLTbits 3F95                                       _sprintf 2AE2  
                        end_of_initialization 29C2                                     _T2RSTbits 3FAF  
                                     fputc@fp 0005                                     _T6RSTbits 3F97  
                      _I2C1_DO_SEND_ADR_WRITE 0000                ??_UART1_SetOverrunErrorHandler 0122  
                     __end_of_I2C1_Initialize 2C7E                                   _I2C1_Status 0060  
                           __end_of_vfpfcnvrt 2170                                       postdec1 3FE5  
                                     postdec2 3FDD                                       postinc0 3FEE  
                                     postinc1 3FE6                                       postinc2 3FDE  
                            vfpfcnvrt@convarg 0011                              ?_ADCC_Initialize 0001  
                                  ??_vfprintf 0019              __end_of_ADCC_GetSingleConversion 2BE0  
                           UART1_Write@txData 0001                    _I2C1_DO_SEND_RESTART_WRITE 0000  
                    _TMR6_SetInterruptHandler 2D2C                                   ___fladd@grs 0010  
                               ___xxtofl@sign 000E                                   ___fldiv@grs 0045  
                                 ___fldiv@rem 003E                                    map@out_max 005B  
                                  map@out_min 0057                                   ___flmul@grs 0026  
                __end_of_INTERRUPT_Initialize 2D50                                __end_of___flge 2530  
                                 vfpfcnvrt@ap 000D                                   vfpfcnvrt@cp 0010  
                                 vfpfcnvrt@fp 000B                                _I2C1_DO_RX_ACK 0000  
                              _I2C1_DO_TX_ACK 0000                        ?_OSCILLATOR_Initialize 0001  
                         start_initialization 2966                                   __end_of_abs 2B4A  
                                 __end_of_map 262A                       ??_UART1_SetErrorHandler 0122  
                                 putch@txData 0002                                    ivt0x8_base 0008  
                            ?_I2C1_Initialize 0001                                   vfprintf@fmt 0017  
                                    ??___flge 0009                              ??_PMD_Initialize 0120  
                                 __pdataBANK0 00F7                             ??_UART_SendString 0003  
                                   ___fladd@a 0005                                     ___fladd@b 0001  
                    _ADCC_GetSingleConversion 2BAE                                     ___fldiv@a 0036  
                                   ___fldiv@b 0032                                   __pbssBIGRAM 0124  
                 PWM5_LoadDutyValue@dutyValue 0120                                     ___flmul@a 001D  
                                   ___flmul@b 0019                                   __pbssCOMRAM 005F  
                        _I2C1_DO_SEND_RESTART 0000                                     ___flsub@a 0015  
                                   ___flsub@b 0011                            _UART1_ErrorHandler 00F1  
                               __pcstackBANK0 00D7                                 __pcstackBANK1 0120  
                                   _adc_value 00B0                                     __end_of_B 1037  
                       _TMR6_InterruptHandler 00EF                                     __pnvBANK0 00EF  
                       _rd2RegCompleteHandler 0000                        _PIN_MANAGER_Initialize 279E  
                       _wr2RegCompleteHandler 0000                             ?_UART1_Initialize 0001  
        __end_of_UART1_SetFramingErrorHandler 2D22                  _UART1_SetFramingErrorHandler 2D18  
             ADCC_GetSingleConversion@channel 0005                                      ?___fladd 0001  
                                    ?___fldiv 0032                                      ?___awdiv 0001  
                                    ?___awmod 0001                                      ?___flmul 0019  
                                    ?___flsub 0011                                      ?___fltol 00DB  
                          ??_UART1_Initialize 0122                                      _I2C1CON0 3D73  
                                    _I2C1CON1 3D74                                      _I2C1CON2 3D75  
                            _uart1RxLastError 00C2                                 ??_UART1_Write 0001  
                                    _DAC1CON0 3E9E                                      _DAC1CON1 3E9C  
                ??_INTERRUPT_InterruptManager 00E5                                   __smallconst 1000  
            _UART1_DefaultOverrunErrorHandler 0000                                     _maxSample 00A4  
                                    ?_sprintf 001A                                      _T2CLKCON 3FAE  
                                 _U1ERRIRbits 3DF9                          _INTERRUPT_Initialize 2D4C  
                                    _T6CLKCON 3F96                                    _I2C1SDAPPS 3AE2  
                                  _I2C1SCLPPS 3AE1         UART1_SetErrorHandler@interruptHandler 0120  
                                  _I2C1_DO_RX 0000                                    _I2C1_DO_TX 0000  
                                    _PIE2bits 3992                                      _PIE3bits 3993  
                                    _PIE9bits 3999                                   _bufferIndex 00BA  
                                    i2u212_40 2CCA                                      i2u300_40 1C14  
                                    i2u220_40 26DC                                      i2u212_41 2CC6  
                                    i2u300_41 1C10                                      i2u220_41 26D8  
                                    i2u301_40 1C2A                                      i2u221_40 2700  
                                    i2u301_41 1C26                                      i2u221_41 26FC  
                                    i2u302_40 1C3E                                      i2u310_40 15A6  
                                    i2u222_40 271A                                      i2u230_40 28C2  
                                    i2u302_41 1C3A                                      i2u310_41 15A2  
                                    i2u222_41 2716                                      i2u230_41 28BE  
                                    i2u303_40 1C58                                      i2u311_40 15B8  
                                    i2u215_40 263C                                      i2u223_40 2734  
                                    i2u231_40 2B24                                      i2u303_41 1C54  
                                    i2u311_41 15B4                                      i2u215_41 2638  
                                    i2u223_41 2730                                      i2u231_41 2B20  
                                    i2u304_40 1CA0                                      i2u320_40 187C  
                                    i2u312_40 15C8                                      i2u240_40 1120  
                                    i2u216_40 2656                                      i2u224_40 2752  
                                    i2u304_41 1C9C                                      i2u320_41 1878  
                                    i2u312_41 15C4                                      i2u240_41 111C  
                                    i2u216_41 2652                                      i2u224_41 274E  
                                    i2u305_40 1CD0                                      i2u321_40 1890  
                                    i2u313_40 15FE                                      i2u241_40 115C  
                                    i2u217_40 267C                                      i2u225_40 2768  
                                    i2u305_41 1CCC                                      i2u321_41 188C  
                                    i2u313_41 15FA                                      i2u241_41 1158  
                                    i2u217_41 2678                                      i2u225_41 2764  
                                    i2u306_40 1CFE                                      i2u322_40 18AA  
                                    i2u314_40 160E                                      i2u250_40 1276  
                                    i2u242_40 116A                                      i2u234_40 1084  
                                    i2u218_40 269A                                      i2u226_40 278C  
                                    i2u306_41 1CFA                                      i2u322_41 18A6  
                                    i2u314_41 160A                                      i2u250_41 1272  
                                    i2u242_41 1166                                      i2u234_41 1080  
                                    i2u218_41 2696                                      i2u226_41 2788  
                                    i2u323_40 18F2                                      i2u315_40 17AC  
                                    i2u307_40 1544                                      i2u251_40 12A8  
                                    i2u243_40 11D8                                      i2u235_40 1096  
                                    i2u219_40 26B6                                      i2u227_40 285A  
                                    i2u323_41 18EE                                      i2u307_41 1540  
                                    i2u251_41 12A4                                      i2u243_41 11D4  
                                    i2u235_41 1092                                      i2u219_41 26B2  
                                    i2u227_41 2856                                      i2u315_45 17A2  
                                    i2u340_40 2C36                                      i2u324_40 1920  
                                    i2u316_40 1806                                      i2u308_40 1556  
                                    i2u260_40 13F0                                      i2u252_40 12B6  
                                    i2u244_40 11F0                                      i2u236_40 10A6  
                                    i2u228_40 286A                                      i2u412_40 1D46  
                                    i2u340_41 2C32                                      i2u324_41 191C  
                                    i2u316_41 1802                                      i2u308_41 1552  
                                    i2u260_41 13EC                                      i2u252_41 12B2  
                                    i2u244_41 11EA                                      i2u236_41 10A2  
                                    i2u228_41 2866                                      i2u412_41 1D42  
                                    i2u325_40 195A                                      i2u317_40 1826  
                                    i2u309_40 1566                                      i2u261_40 1400  
                                    i2u253_40 12D4                                      i2u245_40 11F2  
                                    i2u237_40 10E8                                      i2u229_40 2890  
                                    i2u413_40 1D54                                      i2u325_41 1956  
                                    i2u317_41 1822                                      i2u309_41 1562  
                                    i2u261_41 13FC                                      i2u253_41 12D0  
                                    i2u237_41 10E4                                      i2u229_41 288C  
                                    i2u413_41 1D50                                      i2u334_40 2BCC  
                                    i2u350_40 239E                                      i2u318_40 1838  
                                    i2u270_40 14E8                                      i2u262_40 1412  
                                    i2u254_40 130C                                      i2u246_40 121A  
                                    i2u238_40 10FE                                      i2u326_40 2AA2  
                                    i2u414_40 1E48                                      i2u334_41 2BC8  
                                    i2u350_41 239A                                      i2u318_41 1834  
                                    i2u270_41 14E4                                      i2u262_41 140E  
                                    i2u254_41 1308                                      i2u246_41 1216  
                                    i2u238_41 10FA                                      i2u326_41 2A9E  
                                    i2u414_41 1E44                                      i2u343_40 245A  
                                    i2u351_40 23B2                                      i2u319_40 1866  
                                    i2u271_40 14FA                                      i2u263_40 1428  
                                    i2u255_40 1352                                      i2u247_40 1238  
                                    i2u239_40 1110                                      i2u415_40 1E70  
                                    i2u343_41 2456                                      i2u351_41 23AE  
                                    i2u319_41 1862                                      i2u271_41 14F6  
                                    i2u263_41 1424                                      i2u255_41 134E  
                                    i2u247_41 1234                                      i2u239_41 110C  
                                    i2u415_41 1E6C                                 _I2C1STAT1bits 3D78  
                                    i2u344_40 2498                                      i2u352_40 23DA  
                                    i2u360_40 22AA                                      i2u272_40 1516  
                                    i2u264_40 143E                                      i2u256_40 1388  
                                    i2u248_40 1258                                      i2u280_40 20E0  
                                    i2u416_40 1EAA                                      i2u344_41 2494  
                                    i2u352_41 23D6                                      i2u360_41 22A6  
                                    i2u272_41 1512                                      i2u264_41 143A  
                                    i2u256_41 1384                                      i2u248_41 1254  
                                    i2u280_41 20DC                                      i2u416_41 1EA6  
                                    i2u345_40 24B6                                      i2u353_40 23FA  
                                    i2u361_40 22BA                                      i2u265_40 1452  
                                    i2u257_40 1398                                      i2u249_40 1266  
                                    i2u281_40 20F0                                      i2u273_40 1FBC  
                                    i2u345_41 24B2                                      i2u353_41 23F6  
                                    i2u361_41 22B6                                      i2u265_41 144E  
                                    i2u257_41 1394                                      i2u249_41 1262  
                                    i2u281_41 20EC                                      i2u273_41 1FB8  
                                    i2u338_40 2B94                                      i2u346_40 24D6  
                                    i2u354_40 240A                                      i2u362_40 22C8  
                                    i2u290_40 1A5A                                      i2u266_40 146C  
                                    i2u258_40 13C4                                      i2u282_40 2138  
                                    i2u274_40 2000                                      i2u338_41 2B90  
                                    i2u346_41 24D2                                      i2u354_41 2406  
                                    i2u362_41 22C4                                      i2u290_41 1A56  
                                    i2u266_41 1468                                      i2u258_41 13C0  
                                    i2u282_41 2134                                      i2u274_41 1FFC  
           INTERRUPT_InterruptManager@mapeado 00ED                                      i2u347_40 2526  
                                    i2u363_40 2302                                      i2u355_40 2182  
                                    i2u291_40 1A9A                                      i2u267_40 14A6  
                                    i2u259_40 13D4                                      i2u275_40 2020  
                                    i2u347_41 2522                                      i2u363_41 22FE  
                                    i2u355_41 217E                                      i2u291_41 1A96  
                                    i2u267_41 14A2                                      i2u259_41 13D0  
                                    i2u275_41 201C                                      _PIR2bits 39A2  
                                    i2u339_48 2B9A                                      i2u348_40 233C  
                                    i2u364_40 2310                                      i2u356_40 2190  
                                    i2u292_40 1B10                                      i2u284_40 1992  
                                    i2u268_40 14B8                                      i2u276_40 205A  
                                    i2u339_49 2BAC                                      i2u348_41 2338  
                                    i2u364_41 230C                                      i2u356_41 218C  
                                    i2u292_41 1B0C                                      i2u284_41 198E  
                                    i2u268_41 14B4                                      i2u276_41 2054  
                                    i2u349_40 2370                                      i2u357_40 21EC  
                                    i2u293_40 1B32                                      i2u285_40 19A4  
                                    i2u269_40 14C8                                      i2u277_40 205C  
                                    i2u357_41 21E8                                      i2u293_41 1B2E  
                                    i2u285_41 19A0                                      i2u269_41 14C4  
                                    _PIR3bits 39A3                                      i2u349_45 2366  
                                    i2u358_40 2242                                      i2u294_40 1B5C  
                                    i2u286_40 19B4                                      i2u278_40 20C0  
                                    i2u358_41 223E                                      i2u294_41 1B58  
                                    i2u286_41 19B0                                      i2u278_41 20BC  
                                    i2u359_40 228C                                      i2u295_40 1B80  
                                    i2u287_40 19F8                                      i2u279_40 20D0  
                                    i2u359_41 2288                                      i2u295_41 1B7C  
                                    i2u287_41 19F4                                      i2u279_41 20CC  
                                    _PIR4bits 39A4                                      i2u296_40 1B96  
                                    i2u288_40 1A0A                                      i2u296_41 1B92  
                                    i2u288_41 1A06                                      i2u297_40 1BB4  
                                    i2u289_40 1A1A                                      i2u297_41 1BB0  
                                    i2u289_41 1A16                                      i2u298_40 1BD4  
                                    i2u298_41 1BD0                                      i2u299_40 1BE6  
                                    i2u299_41 1BE2                                      _PIR9bits 39A9  
                  ??_TMR6_SetInterruptHandler 0122                     _I2C1_DO_SEND_RESTART_READ 0000  
                                    _TMR6_ISR 2B7C                 ?_UART1_SetFramingErrorHandler 0120  
                                   _vfpfcnvrt 1F96                                     map@in_max 0053  
                                   map@in_min 004F                                    _ADCON0bits 3EF8  
                                  _ADCON1bits 3EF9                                    _ADCON2bits 3EFA  
                                  _ADCON3bits 3EFB                           __end_of_UART1_Write 2CD2  
                               _I2C1_DO_RESET 0000                                    vfpfcnvrt@c 0015  
                                 _INTCON0bits 3FD2                                     copy_data0 297A  
                       ?_INTERRUPT_Initialize 0001                             ??_DAC1_Initialize 0120  
                           ??_TMR2_Initialize 0120                                  _sampleBuffer 0124  
                                  _ADSTATbits 3EFC                                      __Hrparam 0000  
                                  vfprintf@ap 0018                                      __Lrparam 0000  
                                  vfprintf@fp 0016                       ??_OSCILLATOR_Initialize 0120  
                                  ?_vfpfcnvrt 000B                                      _map$3492 00D7  
                           ??_PWM5_Initialize 0120                                    sprintf@fmt 001B  
                                    ___xxtofl 2170                                  _I2C1CON0bits 3D73  
                                _I2C1CON1bits 3D74                                      __pivt0x8 0008  
                                    __ptext10 2C38                                      __ptext11 279E  
                                    __ptext20 2AE2                                      __ptext12 2CEA  
                                    __ptext21 2A6A                                      __ptext13 2D4C  
                                    __ptext30 106A                                      __ptext22 1F96  
                                    __ptext14 2C5C                                      __ptext31 152A  
                                    __ptext23 284A                                      __ptext15 2D40  
                                    __ptext40 2BAE                                      __ptext32 1978  
                                    __ptext24 2D36                                      __ptext16 2D02  
                                    __ptext41 0000                                      __ptext33 2170  
                                    __ptext25 2B16                                      __ptext17 29C8  
                                    __ptext34 2324                                      __ptext26 26EE  
                                    __ptext18 2AAC                                      __ptext35 242C  
                                    __ptext27 262A                                      __ptext19 1D12  
                                    __ptext36 2C0E                                      __ptext28 2530  
                                    __ptext37 2CB8                                      __ptext29 2A24  
                                    __ptext38 2B7C                                      __ptext39 2D50  
                                    _amplitud 00AC                         _I2C1_DO_BUS_COLLISION 0000  
                                  _U1CON0bits 3DF2                 __end_of_UART1_SetErrorHandler 2D2C  
                    _I2C1_CallbackReturnReset 0000                               _UART_SendString 2C0E  
                   _UART1_OverrunErrorHandler 00F3  UART1_SetOverrunErrorHandler@interruptHandler 0120  
                                    isa$xinst 0000                    ??_ADCC_GetSingleConversion 0003  
                                    _vfprintf 2A6A            __end_of_INTERRUPT_InterruptManager 1F96  
                  _INTERRUPT_InterruptManager 1D12                                  _I2C1_DO_IDLE 0000  
                                 _UART1_Write 2CB8                ??_UART1_SetFramingErrorHandler 0122  
                                  _FVRCONbits 3EC1                        ??_INTERRUPT_Initialize 0120  
        __end_of_TMR6_DefaultInterruptHandler 2D52                  _TMR6_DefaultInterruptHandler 2D50  
                                    intlevel2 0000                                     sprintf@ap 001E  
                     ?_PIN_MANAGER_Initialize 0001                             ??_TMR6_Initialize 0122  
                     _I2C1_CallbackReturnStop 0000                          _I2C1_DO_ADDRESS_NACK 0000  
UART1_SetFramingErrorHandler@interruptHandler 0120                                   ??_vfpfcnvrt 000E  
                              _FVR_Initialize 2D40                                      sprintf@f 001F  
                                    sprintf@s 001A                                 ___fladd@signs 000D  
                     __end_of_UART_SendString 2C38                __end_of_PIN_MANAGER_Initialize 284A  
                           ??_ADCC_Initialize 0120               fp__TMR6_DefaultInterruptHandler 0000  
               ?_TMR6_DefaultInterruptHandler 0001                                  ___fladd@aexp 000E  
                                ___fladd@bexp 000F  
